(dp1
S'output'
p2
S"<type 'exceptions.TypeError'> list indices must be integers, not str"
p3
sS'layer'
p4
S'/home/aayn/Documents/web2py/applications/ne/controllers/default.py'
p5
sS'code'
p6
S'# -*- coding: utf-8 -*-\n# this file is released under public domain and you can use without limitations\n\n#########################################################################\n## This is a sample controller\n## - index is the default action of any application\n## - user is required for authentication and authorization\n## - download is for downloading files uploaded in the db (does streaming)\n## - api is an example of Hypermedia API support and access control\n#########################################################################\n\ndef index():\n    """\n    example action using the internationalization operator T and flash\n    rendered by views/default/index.html or views/generic.html\n\n    if you need a simple wiki simply replace the two lines below with:\n    return auth.wiki()\n    """\n    #response.flash = T("Welcome to the IIIT Hostel Portal!")\n    return dict(message=T(\'Hello World\'))\n\n\n@auth.requires_login()\ndef hello():\n    return dict(message=\'hello %(first_name)s\' % auth.user)\n\n\n#def register():\n #   admin_auth = session.auth\n  #  auth.is_logged_in = lambda: False\n   # def post_register(form):\n    #    session.auth = admin_auth\n    #    auth.user = session.auth.user\n    #auth.settings.register_onaccept = post_register\n    #return dict(form=auth.register())\n\ndef user():\n    """\n    exposes:\n    http://..../[app]/default/user/login\n    http://..../[app]/default/user/logout\n    http://..../[app]/default/user/register\n    http://..../[app]/default/user/profile\n    http://..../[app]/default/user/retrieve_password\n    http://..../[app]/default/user/change_password\n    http://..../[app]/default/user/manage_users (requires membership in\n    use @auth.requires_login()\n        @auth.requires_membership(\'group name\')\n        @auth.requires_permission(\'read\',\'table name\',record_id)\n    to decorate functions that need access control\n    """\n    return dict(form=auth())\n\n@auth.requires_login()\ndef newspaper():\n    db.newspaper.subscriber.default=auth.user.id\n    form=SQLFORM(db.newspaper, [22, 23], deletable=True).process()\n    if form.accepted:\n        session.flash = (\'Okay!\')\n    return locals()\n\n\n@auth.requires_login()\ndef del_old_subscriptions():\n    i = 0\n\n@auth.requires_login()\ndef show_newspaper_subscriptions():\n    subs = db(db.newspaper.subscriber==auth.user.id).select(db.newspaper.id, db.newspaper.choice_of_newspaper, db.newspaper.subscription_type) \n    return locals()\n\n@cache.action()\ndef download():\n    """\n    allows downloading of uploaded files\n    http://..../[app]/default/download/[filename]\n    """\n    return response.download(request, db)\n\n\ndef call():\n    """\n    exposes services. for example:\n    http://..../[app]/default/call/jsonrpc\n    decorate with @services.jsonrpc the functions to expose\n    supports xml, json, xmlrpc, jsonrpc, amfrpc, rss, csv\n    """\n    return service()\n\n\n@auth.requires_login()\ndef already_got_room():\n    message = "Error! User already registered for another room."\n    #response.flash = "User already registered"\n    return locals()\n\n\n@auth.requires_login()\ndef room_year():\n    j = (db(db.ug2k15.student==auth.user.id).count() +\n         db(db.ug2k14.student==auth.user.id).count() +\n         db(db.ug2k13.student==auth.user.id).count() +\n         db(db.fug2k15.student==auth.user.id).count() +\n         db(db.fug2k14.student==auth.user.id).count() +\n         db(db.fug2k13.student==auth.user.id).count() +\n         db(db.pg2k15.student==auth.user.id).count() +\n         db(db.pg2k14.student==auth.user.id).count())\n    i = db(db.room_year.student==auth.user.id).count()\n    if j == 0:\n        db(db.room_year.student == auth.user.id).delete()\n    elif i > 0:\n        session.flash = "You have already registered."\n        redirect(URL(\'default\', \'already_got_room\'))\n    db.room_year.student.default=auth.user.id\n    form=SQLFORM(db.room_year).process()\n    if form.vars.batch  ==  \'UG2K15\':\n        if auth.user.sex == \'Female\':\n            redirect(URL(\'default\', \'FUG2K15\', args=["Parul", "Nivas", 1]))\n        else:\n            redirect(URL(\'default\', \'UG2K15\', args=["Palash", "Nivas", 1]))\n\n\n    elif form.vars.batch  ==  \'UG2K14\':\n        if auth.user.sex == \'Female\':\n            redirect(URL(\'default\', \'FUG2K14\', args=["Parul", "Nivas", 1]))\n        else:\n            redirect(URL(\'default\', \'UG2K14\', args=["Palash", "Nivas", 1]))\n\n\n    elif form.vars.batch  ==  \'UG2K13 and before\':\n        if auth.user.sex == \'Female\':\n            redirect(URL(\'default\', \'FUG2K13\', args=["Parijaat", "Nivas", 1]))\n        else:\n            redirect(URL(\'default\', \'UG2K13\', args=["Palash", "Nivas", 1]))\n\n    elif form.vars.batch  ==  \'PG2K15\':\n        if auth.user.sex == \'Female\':\n            redirect(URL(\'default\', \'FUG2K15\', args=["Parul", "Nivas", 1]))\n        else:\n            redirect(URL(\'default\', \'PG2K15\', args=["Bakul", "Nivas", 1]))\n\n    elif form.vars.batch  ==  \'PG2K14 and before\':\n        if auth.user.sex == \'Female\':\n            redirect(URL(\'default\', \'FUG2K14\', args=["Parul", "Nivas", 1]))\n        else:\n            redirect(URL(\'default\', \'PG2K14\', args=["Bakul", "Nivas", 1]))\n    return locals()\n\n\n@auth.requires_login()\ndef UG2K15():\n    hname = request.args\n    i = db(db.ug2k15.student==auth.user.id).count()\n    if i > 0:\n        session.flash = "You have already registered."\n        redirect(URL(\'default\', \'already_got_room\'))\n\n    db.ug2k15.student.default=auth.user.id\n    db.ug2k15.student.requires= IS_NOT_IN_DB(db, db.ug2k15.student)\n    form = SQLFORM(db.ug2k15).process()\n    count = db(db.ug2k15.room_number == form.vars.room_number).count()\n    if count > 2:\n        message = "This room already has two occupants."\n        db(db.ug2k15.student == auth.user.id).delete()\n        db(db.room_year.student == auth.user.id).delete()\n        session.flash = message\n        redirect(URL(\'default\', \'two_people\'))\n    elif form.accepted:\n        session.flash = "Registered!"\n        redirect(URL(\'default\', \'index\'))\n    return locals()\n\n\n@auth.requires_login()\ndef PG2K15():\n    hname = request.args\n    i = db(db.pg2k15.student==auth.user.id).count()\n    if i > 0:\n        session.flash = "You have already registered."\n        redirect(URL(\'default\', \'already_got_room\'))\n\n    db.pg2k15.student.default=auth.user.id\n    db.pg2k15.student.requires= IS_NOT_IN_DB(db, db.pg2k15.student)\n    form = SQLFORM(db.pg2k15).process()\n    count = db(db.pg2k15.room_number == form.vars.room_number).count()\n    if count > 2:\n        message = "This room already has two occupants."\n        db(db.pg2k15.student == auth.user.id).delete()\n        db(db.room_year.student == auth.user.id).delete()\n        session.flash = message\n        redirect(URL(\'default\', \'two_people\'))\n    elif form.accepted:\n        session.flash = "Registered!"\n        redirect(URL(\'default\', \'index\'))\n    return locals()\n\n\n@auth.requires_login()\ndef FUG2K15():\n    hname = request.args\n    i = db(db.fug2k15.student==auth.user.id).count()\n    if i > 0:\n        session.flash = "You have already registered."\n        redirect(URL(\'default\', \'already_got_room\'))\n\n    db.fug2k15.student.default=auth.user.id\n    db.fug2k15.student.requires= IS_NOT_IN_DB(db, db.fug2k15.student)\n    form = SQLFORM(db.fug2k15).process()\n    count = db(db.fug2k15.room_number == form.vars.room_number).count()\n    if count > 2:\n        message = "This room already has two occupants."\n        db(db.fug2k15.student == auth.user.id).delete()\n        db(db.room_year.student == auth.user.id).delete()\n        session.flash = message\n        redirect(URL(\'default\', \'two_people\'))\n    elif form.accepted:\n        session.flash = "Registered!"\n        redirect(URL(\'default\', \'index\'))\n    return locals()\n\n\n@auth.requires_login()\ndef UG2K14():\n    hname = request.args\n    i = db(db.ug2k14.student==auth.user.id).count()\n    if i > 0:\n        session.flash = "You have already registered."\n        redirect(URL(\'default\', \'already_got_room\'))\n\n    db.ug2k14.student.default=auth.user.id\n    db.ug2k14.student.requires= IS_NOT_IN_DB(db, db.ug2k14.student)\n    form = SQLFORM(db.ug2k14).process()\n    count = db(db.ug2k14.room_number == form.vars.room_number).count()\n    if count > 1:\n        message = "This room already has an occupant."\n        db(db.ug2k14.student == auth.user.id).delete()\n        db(db.room_year.student == auth.user.id).delete()\n        session.flash = message\n        redirect(URL(\'default\', \'people\'))\n    elif form.accepted:\n        session.flash = "Registered!"\n        redirect(URL(\'default\', \'index\'))\n    return locals()\n\n\n@auth.requires_login()\ndef PG2K14():\n    hname = request.args\n    i = db(db.pg2k14.student==auth.user.id).count()\n    if i > 0:\n        session.flash = "You have already registered."\n        redirect(URL(\'default\', \'already_got_room\'))\n\n    db.pg2k14.student.default=auth.user.id\n    db.pg2k14.student.requires= IS_NOT_IN_DB(db, db.pg2k14.student)\n    form = SQLFORM(db.pg2k14).process()\n    count = db(db.pg2k14.room_number == form.vars.room_number).count()\n    if count > 1:\n        message = "This room already has an occupant."\n        db(db.pg2k14.student == auth.user.id).delete()\n        db(db.room_year.student == auth.user.id).delete()\n        session.flash = message\n        redirect(URL(\'default\', \'people\'))\n    elif form.accepted:\n        session.flash = "Registered!"\n        redirect(URL(\'default\', \'index\'))\n    return locals()\n\n\n@auth.requires_login()\ndef FUG2K14():\n    hname = request.args\n    i = db(db.fug2k14.student==auth.user.id).count()\n    if i > 0:\n        session.flash = "You have already registered."\n        redirect(URL(\'default\', \'already_got_room\'))\n\n    db.fug2k14.student.default=auth.user.id\n    db.fug2k14.student.requires= IS_NOT_IN_DB(db, db.fug2k14.student)\n    form = SQLFORM(db.fug2k14).process()\n    count = db(db.fug2k14.room_number == form.vars.room_number).count()\n    if count > 1:\n        message = "This room already has an occupant."\n        db(db.fug2k14.student == auth.user.id).delete()\n        db(db.room_year.student == auth.user.id).delete()\n        session.flash = message\n        redirect(URL(\'default\', \'people\'))\n    elif form.accepted:\n        session.flash = "Registered!"\n        redirect(URL(\'default\', \'index\'))\n    return locals()\n\n\n\n@auth.requires_login()\ndef UG2K13():\n    hname = request.args\n    i = db(db.ug2k13.student==auth.user.id).count()\n    if i > 0:\n        session.flash = "You have already registered."\n        redirect(URL(\'default\', \'already_got_room\'))\n\n    db.ug2k13.student.default=auth.user.id\n    db.ug2k13.student.requires= IS_NOT_IN_DB(db, db.ug2k13.student)\n    form = SQLFORM(db.ug2k13).process()\n    count = db(db.ug2k13.room_number == form.vars.room_number).count()\n    if count > 1:\n        message = "This room already has an occupant."\n        db(db.ug2k13.student == auth.user.id).delete()\n        db(db.room_year.student == auth.user.id).delete()\n        session.flash = message\n        redirect(URL(\'default\', \'people\'))\n    elif form.accepted:\n        session.flash = "Registered!"\n        redirect(URL(\'default\', \'index\'))\n    return locals()\n\n\n@auth.requires_login()\ndef FUG2K13():\n    hname = request.args\n    i = db(db.fug2k13.student==auth.user.id).count()\n    if i > 0:\n        session.flash = "You have already registered."\n        redirect(URL(\'default\', \'already_got_room\'))\n\n    db.fug2k13.student.default=auth.user.id\n    db.fug2k13.student.requires= IS_NOT_IN_DB(db, db.fug2k13.student)\n    form = SQLFORM(db.fug2k13).process()\n    count = db(db.fug2k13.room_number == form.vars.room_number).count()\n    if count > 1:\n        message = "This room already has an occupant."\n        db(db.fug2k13.student == auth.user.id).delete()\n        db(db.room_year.student == auth.user.id).delete()\n        session.flash = message\n        redirect(URL(\'default\', \'people\'))\n    elif form.accepted:\n        session.flash = "Registered!"\n        redirect(URL(\'default\', \'index\'))\n    return locals()\n\n\n@auth.requires_login()\ndef two_people():\n    message = "Sorry! Two people already registered for this room."\n    return locals()\n\n\n@auth.requires_login()\ndef people():\n    message = "This room is occupied."\n    return locals()\n\nresponse._vars=response._caller(newspaper)\n'
p7
sS'snapshot'
p8
(dp9
S'exception'
p10
(dp11
S'__hash__'
p12
S"<method-wrapper '__hash__' of exceptions.TypeError object>"
p13
sS'__setattr__'
p14
S"<method-wrapper '__setattr__' of exceptions.TypeError object>"
p15
sS'__reduce_ex__'
p16
S'<built-in method __reduce_ex__ of exceptions.TypeError object>'
p17
sS'__getslice__'
p18
S"<method-wrapper '__getslice__' of exceptions.TypeError object>"
p19
sS'__getitem__'
p20
S"<method-wrapper '__getitem__' of exceptions.TypeError object>"
p21
sS'__setstate__'
p22
S'<built-in method __setstate__ of exceptions.TypeError object>'
p23
sS'args'
p24
S"('list indices must be integers, not str',)"
p25
sS'__reduce__'
p26
S'<built-in method __reduce__ of exceptions.TypeError object>'
p27
sS'__str__'
p28
S"<method-wrapper '__str__' of exceptions.TypeError object>"
p29
sS'__format__'
p30
S'<built-in method __format__ of exceptions.TypeError object>'
p31
sS'__getattribute__'
p32
S"<method-wrapper '__getattribute__' of exceptions.TypeError object>"
p33
sS'__class__'
p34
S"<type 'exceptions.TypeError'>"
p35
sS'__unicode__'
p36
S'<built-in method __unicode__ of exceptions.TypeError object>'
p37
sS'__delattr__'
p38
S"<method-wrapper '__delattr__' of exceptions.TypeError object>"
p39
sS'__subclasshook__'
p40
S'<built-in method __subclasshook__ of type object>'
p41
sS'__repr__'
p42
S"<method-wrapper '__repr__' of exceptions.TypeError object>"
p43
sS'__dict__'
p44
S'{}'
p45
sS'__sizeof__'
p46
S'<built-in method __sizeof__ of exceptions.TypeError object>'
p47
sS'__doc__'
p48
S"'Inappropriate argument type.'"
p49
sS'__init__'
p50
S"<method-wrapper '__init__' of exceptions.TypeError object>"
p51
sS'__new__'
p52
S'<built-in method __new__ of type object>'
p53
ssS'evalue'
p54
S'list indices must be integers, not str'
p55
sS'request'
p56
cgluon.html
XML_unpickle
p57
(S'sU[\x00\x00<div><table><tr><td style="font-weight:bold;vertical-align:top;">ajax</td><td style="vertical-align:top;">:</td><td><div>False</div></td></tr><tr><td style="font-weight:bold;vertical-align:top;">application</td><td style="vertical-align:top;">:</td><td><div>ne</div></td></tr><tr><td style="font-weight:bold;vertical-align:top;">args</td><td style="vertical-align:top;">:</td><td><div><table></table></div></td></tr><tr><td style="font-weight:bold;vertical-align:top;">cid</td><td style="vertical-align:top;">:</td><td><div>None</div></td></tr><tr><td style="font-weight:bold;vertical-align:top;">client</td><td style="vertical-align:top;">:</td><td><div>127.0.0.1</div></td></tr><tr><td style="font-weight:bold;vertical-align:top;">controller</td><td style="vertical-align:top;">:</td><td><div>default</div></td></tr><tr><td style="font-weight:bold;vertical-align:top;">cookies</td><td style="vertical-align:top;">:</td><td><div><table><tr><td style="font-weight:bold;vertical-align:top;">session_id_admin</td><td style="vertical-align:top;">:</td><td><div>127.0.0.1-2c614028-9a8f-4426-abe6-8d752dbea3e7<table><tr><td style="font-weight:bold;vertical-align:top;">comment</td><td style="vertical-align:top;">:</td><td><div></div></td></tr><tr><td style="font-weight:bold;vertical-align:top;">domain</td><td style="vertical-align:top;">:</td><td><div></div></td></tr><tr><td style="font-weight:bold;vertical-align:top;">expires</td><td style="vertical-align:top;">:</td><td><div></div></td></tr><tr><td style="font-weight:bold;vertical-align:top;">httponly</td><td style="vertical-align:top;">:</td><td><div></div></td></tr><tr><td style="font-weight:bold;vertical-align:top;">max-age</td><td style="vertical-align:top;">:</td><td><div></div></td></tr><tr><td style="font-weight:bold;vertical-align:top;">path</td><td style="vertical-align:top;">:</td><td><div></div></td></tr><tr><td style="font-weight:bold;vertical-align:top;">secure</td><td style="vertical-align:top;">:</td><td><div></div></td></tr><tr><td style="font-weight:bold;vertical-align:top;">version</td><td style="vertical-align:top;">:</td><td><div></div></td></tr></table></div></td></tr><tr><td style="font-weight:bold;vertical-align:top;">session_id_ne</td><td style="vertical-align:top;">:</td><td><div>127.0.0.1-b6a5ff49-1c17-4875-90f7-30fcf4e74945<table><tr><td style="font-weight:bold;vertical-align:top;">comment</td><td style="vertical-align:top;">:</td><td><div></div></td></tr><tr><td style="font-weight:bold;vertical-align:top;">domain</td><td style="vertical-align:top;">:</td><td><div></div></td></tr><tr><td style="font-weight:bold;vertical-align:top;">expires</td><td style="vertical-align:top;">:</td><td><div></div></td></tr><tr><td style="font-weight:bold;vertical-align:top;">httponly</td><td style="vertical-align:top;">:</td><td><div></div></td></tr><tr><td style="font-weight:bold;vertical-align:top;">max-age</td><td style="vertical-align:top;">:</td><td><div></div></td></tr><tr><td style="font-weight:bold;vertical-align:top;">path</td><td style="vertical-align:top;">:</td><td><div></div></td></tr><tr><td style="font-weight:bold;vertical-align:top;">secure</td><td style="vertical-align:top;">:</td><td><div></div></td></tr><tr><td style="font-weight:bold;vertical-align:top;">version</td><td style="vertical-align:top;">:</td><td><div></div></td></tr></table></div></td></tr><tr><td style="font-weight:bold;vertical-align:top;">session_id_welcome</td><td style="vertical-align:top;">:</td><td><div>127.0.0.1-4278a16c-1b7f-4320-9b0d-df3d73653582<table><tr><td style="font-weight:bold;vertical-align:top;">comment</td><td style="vertical-align:top;">:</td><td><div></div></td></tr><tr><td style="font-weight:bold;vertical-align:top;">domain</td><td style="vertical-align:top;">:</td><td><div></div></td></tr><tr><td style="font-weight:bold;vertical-align:top;">expires</td><td style="vertical-align:top;">:</td><td><div></div></td></tr><tr><td style="font-weight:bold;vertical-align:top;">httponly</td><td style="vertical-align:top;">:</td><td><div></div></td></tr><tr><td style="font-weight:bold;vertical-align:top;">max-age</td><td style="vertical-align:top;">:</td><td><div></div></td></tr><tr><td style="font-weight:bold;vertical-align:top;">path</td><td style="vertical-align:top;">:</td><td><div></div></td></tr><tr><td style="font-weight:bold;vertical-align:top;">secure</td><td style="vertical-align:top;">:</td><td><div></div></td></tr><tr><td style="font-weight:bold;vertical-align:top;">version</td><td style="vertical-align:top;">:</td><td><div></div></td></tr></table></div></td></tr></table></div></td></tr><tr><td style="font-weight:bold;vertical-align:top;">env</td><td style="vertical-align:top;">:</td><td><div><table><tr><td style="font-weight:bold;vertical-align:top;">HTTP_ACCEPT</td><td style="vertical-align:top;">:</td><td><div>text/html,application/xhtml+xml,application/xml;q=0.9,*/*;q=0.8</div></td></tr><tr><td style="font-weight:bold;vertical-align:top;">HTTP_ACCEPT_ENCODING</td><td style="vertical-align:top;">:</td><td><div>gzip, deflate</div></td></tr><tr><td style="font-weight:bold;vertical-align:top;">HTTP_ACCEPT_LANGUAGE</td><td style="vertical-align:top;">:</td><td><div>en-US,en;q=0.5</div></td></tr><tr><td style="font-weight:bold;vertical-align:top;">HTTP_CONNECTION</td><td style="vertical-align:top;">:</td><td><div>keep-alive</div></td></tr><tr><td style="font-weight:bold;vertical-align:top;">HTTP_COOKIE</td><td style="vertical-align:top;">:</td><td><div>_ga=GA1.1.637305383.1418150911; session_id_welcome=127.0.0.1-4278a16c-1b7f-4320-9b0d-df3d73653582; session_id_admin=127.0.0.1-2c614028-9a8f-4426-abe6-8d752dbea3e7; session_id_ne=127.0.0.1-b6a5ff49-1c17-4875-90f7-30fcf4e74945</div></td></tr><tr><td style="font-weight:bold;vertical-align:top;">HTTP_HOST</td><td style="vertical-align:top;">:</td><td><div>127.0.0.1:8000</div></td></tr><tr><td style="font-weight:bold;vertical-align:top;">HTTP_REFERER</td><td style="vertical-align:top;">:</td><td><div>http://127.0.0.1:8000/ne/default/show_newspaper_subscriptions</div></td></tr><tr><td style="font-weight:bold;vertical-align:top;">HTTP_USER_AGENT</td><td style="vertical-align:top;">:</td><td><div>Mozilla/5.0 (X11; Ubuntu; Linux x86_64; rv:35.0) Gecko/20100101 Firefox/35.0</div></td></tr><tr><td style="font-weight:bold;vertical-align:top;">PATH_INFO</td><td style="vertical-align:top;">:</td><td><div>/ne/default/newspaper</div></td></tr><tr><td style="font-weight:bold;vertical-align:top;">QUERY_STRING</td><td style="vertical-align:top;">:</td><td><div></div></td></tr><tr><td style="font-weight:bold;vertical-align:top;">REMOTE_ADDR</td><td style="vertical-align:top;">:</td><td><div>127.0.0.1</div></td></tr><tr><td style="font-weight:bold;vertical-align:top;">REMOTE_PORT</td><td style="vertical-align:top;">:</td><td><div>45095</div></td></tr><tr><td style="font-weight:bold;vertical-align:top;">REQUEST_METHOD</td><td style="vertical-align:top;">:</td><td><div>GET</div></td></tr><tr><td style="font-weight:bold;vertical-align:top;">SCRIPT_NAME</td><td style="vertical-align:top;">:</td><td><div></div></td></tr><tr><td style="font-weight:bold;vertical-align:top;">SERVER_NAME</td><td style="vertical-align:top;">:</td><td><div>localhostess</div></td></tr><tr><td style="font-weight:bold;vertical-align:top;">SERVER_PORT</td><td style="vertical-align:top;">:</td><td><div>8000</div></td></tr><tr><td style="font-weight:bold;vertical-align:top;">SERVER_PROTOCOL</td><td style="vertical-align:top;">:</td><td><div>HTTP/1.1</div></td></tr><tr><td style="font-weight:bold;vertical-align:top;">SERVER_SOFTWARE</td><td style="vertical-align:top;">:</td><td><div>Rocket 1.2.6</div></td></tr><tr><td style="font-weight:bold;vertical-align:top;">app_folders</td><td style="vertical-align:top;">:</td><td><div>set([&#x27;/home/aayn/Documents/web2py/applications/welcome/&#x27;, &#x27;/home/aayn/Documents/web2py/applications/ne/&#x27;, &#x27;/home/aayn/Documents/web2py/applications/admin/&#x27;])</div></td></tr><tr><td style="font-weight:bold;vertical-align:top;">applications_parent</td><td style="vertical-align:top;">:</td><td><div>/home/aayn/Documents/web2py</div></td></tr><tr><td style="font-weight:bold;vertical-align:top;">cmd_args</td><td style="vertical-align:top;">:</td><td><div><table></table></div></td></tr><tr><td style="font-weight:bold;vertical-align:top;">cmd_options</td><td style="vertical-align:top;">:</td><td><div>&lt;Values at 0x7f6df0b4df80: {&#x27;verbose&#x27;: False, &#x27;ip&#x27;: &#x27;127.0.0.1&#x27;, &#x27;debuglevel&#x27;: 30, &#x27;with_scheduler&#x27;: False, &#x27;ips&#x27;: [&#x27;127.0.1.1&#x27;], &#x27;shutdown_timeout&#x27;: 5, &#x27;taskbar&#x27;: False, &#x27;with_coverage&#x27;: False, &#x27;scheduler_groups&#x27;: None, &#x27;port&#x27;: 8000, &#x27;maxthreads&#x27;: None, &#x27;softcron&#x27;: False, &#x27;server_name&#x27;: &#x27;localhostess&#x27;, &#x27;bpython&#x27;: False, &#x27;nogui&#x27;: False, &#x27;pid_filename&#x27;: &#x27;httpserver.pid&#x27;, &#x27;extcron&#x27;: False, &#x27;runcron&#x27;: False, &#x27;run_system_tests&#x27;: False, &#x27;test&#x27;: None, &#x27;folder&#x27;: &#x27;/home/aayn/Documents/web2py&#x27;, &#x27;config&#x27;: &#x27;&#x27;, &#x27;minthreads&#x27;: None, &#x27;shell&#x27;: None, &#x27;run&#x27;: &#x27;&#x27;, &#x27;log_filename&#x27;: &#x27;httpserver.log&#x27;, &#x27;profiler_dir&#x27;: None, &#x27;args&#x27;: [&#x27;&#x27;], &#x27;socket_timeout&#x27;: 5, &#x27;ssl_ca_certificate&#x27;: None, &#x27;scheduler&#x27;: None, &#x27;interfaces&#x27;: None, &#x27;ssl_private_key&#x27;: &#x27;&#x27;, &#x27;gae&#x27;: None, &#x27;password&#x27;: &#x27;&lt;ask&gt;&#x27;, &#x27;request_queue_size&#x27;: 5, &#x27;ssl_certificate&#x27;: &#x27;&#x27;, &#x27;cronjob&#x27;: False, &#x27;numthreads&#x27;: None, &#x27;quiet&#x27;: False, &#x27;import_models&#x27;: False, &#x27;timeout&#x27;: 10, &#x27;plain&#x27;: False, &#x27;nobanner&#x27;: False}&gt;</div></td></tr><tr><td style="font-weight:bold;vertical-align:top;">db_sessions</td><td style="vertical-align:top;">:</td><td><div>set([])</div></td></tr><tr><td style="font-weight:bold;vertical-align:top;">debugging</td><td style="vertical-align:top;">:</td><td><div>False</div></td></tr><tr><td style="font-weight:bold;vertical-align:top;">gluon_parent</td><td style="vertical-align:top;">:</td><td><div>/home/aayn/Documents/web2py</div></td></tr><tr><td style="font-weight:bold;vertical-align:top;">http_accept</td><td style="vertical-align:top;">:</td><td><div>text/html,application/xhtml+xml,application/xml;q=0.9,*/*;q=0.8</div></td></tr><tr><td style="font-weight:bold;vertical-align:top;">http_accept_encoding</td><td style="vertical-align:top;">:</td><td><div>gzip, deflate</div></td></tr><tr><td style="font-weight:bold;vertical-align:top;">http_accept_language</td><td style="vertical-align:top;">:</td><td><div>en-US,en;q=0.5</div></td></tr><tr><td style="font-weight:bold;vertical-align:top;">http_connection</td><td style="vertical-align:top;">:</td><td><div>keep-alive</div></td></tr><tr><td style="font-weight:bold;vertical-align:top;">http_cookie</td><td style="vertical-align:top;">:</td><td><div>_ga=GA1.1.637305383.1418150911; session_id_welcome=127.0.0.1-4278a16c-1b7f-4320-9b0d-df3d73653582; session_id_admin=127.0.0.1-2c614028-9a8f-4426-abe6-8d752dbea3e7; session_id_ne=127.0.0.1-b6a5ff49-1c17-4875-90f7-30fcf4e74945</div></td></tr><tr><td style="font-weight:bold;vertical-align:top;">http_host</td><td style="vertical-align:top;">:</td><td><div>127.0.0.1:8000</div></td></tr><tr><td style="font-weight:bold;vertical-align:top;">http_referer</td><td style="vertical-align:top;">:</td><td><div>http://127.0.0.1:8000/ne/default/show_newspaper_subscriptions</div></td></tr><tr><td style="font-weight:bold;vertical-align:top;">http_user_agent</td><td style="vertical-align:top;">:</td><td><div>Mozilla/5.0 (X11; Ubuntu; Linux x86_64; rv:35.0) Gecko/20100101 Firefox/35.0</div></td></tr><tr><td style="font-weight:bold;vertical-align:top;">is_jython</td><td style="vertical-align:top;">:</td><td><div>False</div></td></tr><tr><td style="font-weight:bold;vertical-align:top;">is_pypy</td><td style="vertical-align:top;">:</td><td><div>False</div></td></tr><tr><td style="font-weight:bold;vertical-align:top;">is_source</td><td style="vertical-align:top;">:</td><td><div>True</div></td></tr><tr><td style="font-weight:bold;vertical-align:top;">local_hosts</td><td style="vertical-align:top;">:</td><td><div><table><tr><td><div>localhostess</div></td></tr><tr><td><div>::1</div></td></tr><tr><td><div>127.0.1.1</div></td></tr><tr><td><div>::ffff:127.0.0.1</div></td></tr><tr><td><div>127.0.0.1</div></td></tr></table></div></td></tr><tr><td style="font-weight:bold;vertical-align:top;">path_info</td><td style="vertical-align:top;">:</td><td><div>/ne/default/newspaper</div></td></tr><tr><td style="font-weight:bold;vertical-align:top;">query_string</td><td style="vertical-align:top;">:</td><td><div></div></td></tr><tr><td style="font-weight:bold;vertical-align:top;">remote_addr</td><td style="vertical-align:top;">:</td><td><div>127.0.0.1</div></td></tr><tr><td style="font-weight:bold;vertical-align:top;">remote_port</td><td style="vertical-align:top;">:</td><td><div>45095</div></td></tr><tr><td style="font-weight:bold;vertical-align:top;">request_method</td><td style="vertical-align:top;">:</td><td><div>GET</div></td></tr><tr><td style="font-weight:bold;vertical-align:top;">request_uri</td><td style="vertical-align:top;">:</td><td><div>/ne/default/newspaper</div></td></tr><tr><td style="font-weight:bold;vertical-align:top;">script_name</td><td style="vertical-align:top;">:</td><td><div></div></td></tr><tr><td style="font-weight:bold;vertical-align:top;">server_name</td><td style="vertical-align:top;">:</td><td><div>localhostess</div></td></tr><tr><td style="font-weight:bold;vertical-align:top;">server_port</td><td style="vertical-align:top;">:</td><td><div>8000</div></td></tr><tr><td style="font-weight:bold;vertical-align:top;">server_protocol</td><td style="vertical-align:top;">:</td><td><div>HTTP/1.1</div></td></tr><tr><td style="font-weight:bold;vertical-align:top;">server_software</td><td style="vertical-align:top;">:</td><td><div>Rocket 1.2.6</div></td></tr><tr><td style="font-weight:bold;vertical-align:top;">web2py_path</td><td style="vertical-align:top;">:</td><td><div>/home/aayn/Documents/web2py</div></td></tr><tr><td style="font-weight:bold;vertical-align:top;">web2py_version</td><td style="vertical-align:top;">:</td><td><div>2.9.12-stable+timestamp.2015.01.17.06.11.03</div></td></tr><tr><td style="font-weight:bold;vertical-align:top;">wsgi.errors</td><td style="vertical-align:top;">:</td><td><div>&lt;open file &#x27;&lt;stderr&gt;&#x27;, mode &#x27;w&#x27; at 0x7f6df56c81e0&gt;</div></td></tr><tr><td style="font-weight:bold;vertical-align:top;">wsgi.file_wrapper</td><td style="vertical-align:top;">:</td><td><div>&lt;class wsgiref.util.FileWrapper at 0x7f6df1d68120&gt;</div></td></tr><tr><td style="font-weight:bold;vertical-align:top;">wsgi.input</td><td style="vertical-align:top;">:</td><td><div>&lt;socket._fileobject object at 0x7f6dc05f1550&gt;</div></td></tr><tr><td style="font-weight:bold;vertical-align:top;">wsgi.multiprocess</td><td style="vertical-align:top;">:</td><td><div>False</div></td></tr><tr><td style="font-weight:bold;vertical-align:top;">wsgi.multithread</td><td style="vertical-align:top;">:</td><td><div>True</div></td></tr><tr><td style="font-weight:bold;vertical-align:top;">wsgi.run_once</td><td style="vertical-align:top;">:</td><td><div>False</div></td></tr><tr><td style="font-weight:bold;vertical-align:top;">wsgi.url_scheme</td><td style="vertical-align:top;">:</td><td><div>http</div></td></tr><tr><td style="font-weight:bold;vertical-align:top;">wsgi.version</td><td style="vertical-align:top;">:</td><td><div><table><tr><td><div>1</div></td></tr><tr><td><div>0</div></td></tr></table></div></td></tr><tr><td style="font-weight:bold;vertical-align:top;">wsgi_errors</td><td style="vertical-align:top;">:</td><td><div>&lt;open file &#x27;&lt;stderr&gt;&#x27;, mode &#x27;w&#x27; at 0x7f6df56c81e0&gt;</div></td></tr><tr><td style="font-weight:bold;vertical-align:top;">wsgi_file_wrapper</td><td style="vertical-align:top;">:</td><td><div>&lt;class wsgiref.util.FileWrapper at 0x7f6df1d68120&gt;</div></td></tr><tr><td style="font-weight:bold;vertical-align:top;">wsgi_input</td><td style="vertical-align:top;">:</td><td><div>&lt;socket._fileobject object at 0x7f6dc05f1550&gt;</div></td></tr><tr><td style="font-weight:bold;vertical-align:top;">wsgi_multiprocess</td><td style="vertical-align:top;">:</td><td><div>False</div></td></tr><tr><td style="font-weight:bold;vertical-align:top;">wsgi_multithread</td><td style="vertical-align:top;">:</td><td><div>True</div></td></tr><tr><td style="font-weight:bold;vertical-align:top;">wsgi_run_once</td><td style="vertical-align:top;">:</td><td><div>False</div></td></tr><tr><td style="font-weight:bold;vertical-align:top;">wsgi_url_scheme</td><td style="vertical-align:top;">:</td><td><div>http</div></td></tr><tr><td style="font-weight:bold;vertical-align:top;">wsgi_version</td><td style="vertical-align:top;">:</td><td><div><table><tr><td><div>1</div></td></tr><tr><td><div>0</div></td></tr></table></div></td></tr></table></div></td></tr><tr><td style="font-weight:bold;vertical-align:top;">extension</td><td style="vertical-align:top;">:</td><td><div>html</div></td></tr><tr><td style="font-weight:bold;vertical-align:top;">folder</td><td style="vertical-align:top;">:</td><td><div>/home/aayn/Documents/web2py/applications/ne/</div></td></tr><tr><td style="font-weight:bold;vertical-align:top;">function</td><td style="vertical-align:top;">:</td><td><div>newspaper</div></td></tr><tr><td style="font-weight:bold;vertical-align:top;">global_settings</td><td style="vertical-align:top;">:</td><td><div><table><tr><td style="font-weight:bold;vertical-align:top;">app_folders</td><td style="vertical-align:top;">:</td><td><div>set([&#x27;/home/aayn/Documents/web2py/applications/welcome/&#x27;, &#x27;/home/aayn/Documents/web2py/applications/ne/&#x27;, &#x27;/home/aayn/Documents/web2py/applications/admin/&#x27;])</div></td></tr><tr><td style="font-weight:bold;vertical-align:top;">applications_parent</td><td style="vertical-align:top;">:</td><td><div>/home/aayn/Documents/web2py</div></td></tr><tr><td style="font-weight:bold;vertical-align:top;">cmd_args</td><td style="vertical-align:top;">:</td><td><div><table></table></div></td></tr><tr><td style="font-weight:bold;vertical-align:top;">cmd_options</td><td style="vertical-align:top;">:</td><td><div>&lt;Values at 0x7f6df0b4df80: {&#x27;verbose&#x27;: False, &#x27;ip&#x27;: &#x27;127.0.0.1&#x27;, &#x27;debuglevel&#x27;: 30, &#x27;with_scheduler&#x27;: False, &#x27;ips&#x27;: [&#x27;127.0.1.1&#x27;], &#x27;shutdown_timeout&#x27;: 5, &#x27;taskbar&#x27;: False, &#x27;with_coverage&#x27;: False, &#x27;scheduler_groups&#x27;: None, &#x27;port&#x27;: 8000, &#x27;maxthreads&#x27;: None, &#x27;softcron&#x27;: False, &#x27;server_name&#x27;: &#x27;localhostess&#x27;, &#x27;bpython&#x27;: False, &#x27;nogui&#x27;: False, &#x27;pid_filename&#x27;: &#x27;httpserver.pid&#x27;, &#x27;extcron&#x27;: False, &#x27;runcron&#x27;: False, &#x27;run_system_tests&#x27;: False, &#x27;test&#x27;: None, &#x27;folder&#x27;: &#x27;/home/aayn/Documents/web2py&#x27;, &#x27;config&#x27;: &#x27;&#x27;, &#x27;minthreads&#x27;: None, &#x27;shell&#x27;: None, &#x27;run&#x27;: &#x27;&#x27;, &#x27;log_filename&#x27;: &#x27;httpserver.log&#x27;, &#x27;profiler_dir&#x27;: None, &#x27;args&#x27;: [&#x27;&#x27;], &#x27;socket_timeout&#x27;: 5, &#x27;ssl_ca_certificate&#x27;: None, &#x27;scheduler&#x27;: None, &#x27;interfaces&#x27;: None, &#x27;ssl_private_key&#x27;: &#x27;&#x27;, &#x27;gae&#x27;: None, &#x27;password&#x27;: &#x27;&lt;ask&gt;&#x27;, &#x27;request_queue_size&#x27;: 5, &#x27;ssl_certificate&#x27;: &#x27;&#x27;, &#x27;cronjob&#x27;: False, &#x27;numthreads&#x27;: None, &#x27;quiet&#x27;: False, &#x27;import_models&#x27;: False, &#x27;timeout&#x27;: 10, &#x27;plain&#x27;: False, &#x27;nobanner&#x27;: False}&gt;</div></td></tr><tr><td style="font-weight:bold;vertical-align:top;">db_sessions</td><td style="vertical-align:top;">:</td><td><div>set([])</div></td></tr><tr><td style="font-weight:bold;vertical-align:top;">debugging</td><td style="vertical-align:top;">:</td><td><div>False</div></td></tr><tr><td style="font-weight:bold;vertical-align:top;">gluon_parent</td><td style="vertical-align:top;">:</td><td><div>/home/aayn/Documents/web2py</div></td></tr><tr><td style="font-weight:bold;vertical-align:top;">is_jython</td><td style="vertical-align:top;">:</td><td><div>False</div></td></tr><tr><td style="font-weight:bold;vertical-align:top;">is_pypy</td><td style="vertical-align:top;">:</td><td><div>False</div></td></tr><tr><td style="font-weight:bold;vertical-align:top;">is_source</td><td style="vertical-align:top;">:</td><td><div>True</div></td></tr><tr><td style="font-weight:bold;vertical-align:top;">local_hosts</td><td style="vertical-align:top;">:</td><td><div><table><tr><td><div>localhostess</div></td></tr><tr><td><div>::1</div></td></tr><tr><td><div>127.0.1.1</div></td></tr><tr><td><div>::ffff:127.0.0.1</div></td></tr><tr><td><div>127.0.0.1</div></td></tr></table></div></td></tr><tr><td style="font-weight:bold;vertical-align:top;">web2py_version</td><td style="vertical-align:top;">:</td><td><div>2.9.12-stable+timestamp.2015.01.17.06.11.03</div></td></tr></table></div></td></tr><tr><td style="font-weight:bold;vertical-align:top;">is_https</td><td style="vertical-align:top;">:</td><td><div>False</div></td></tr><tr><td style="font-weight:bold;vertical-align:top;">is_local</td><td style="vertical-align:top;">:</td><td><div>True</div></td></tr><tr><td style="font-weight:bold;vertical-align:top;">is_restful</td><td style="vertical-align:top;">:</td><td><div>False</div></td></tr><tr><td style="font-weight:bold;vertical-align:top;">is_sheduler</td><td style="vertical-align:top;">:</td><td><div>None</div></td></tr><tr><td style="font-weight:bold;vertical-align:top;">is_shell</td><td style="vertical-align:top;">:</td><td><div>None</div></td></tr><tr><td style="font-weight:bold;vertical-align:top;">now</td><td style="vertical-align:top;">:</td><td><div>datetime.datetime(2015, 5, 2, 23, 56, 24, 259905)</div></td></tr><tr><td style="font-weight:bold;vertical-align:top;">raw_args</td><td style="vertical-align:top;">:</td><td><div></div></td></tr><tr><td style="font-weight:bold;vertical-align:top;">raw_extension</td><td style="vertical-align:top;">:</td><td><div>None</div></td></tr><tr><td style="font-weight:bold;vertical-align:top;">url</td><td style="vertical-align:top;">:</td><td><div>/ne/default/newspaper</div></td></tr><tr><td style="font-weight:bold;vertical-align:top;">utcnow</td><td style="vertical-align:top;">:</td><td><div>datetime.datetime(2015, 5, 2, 18, 26, 24, 259949)</div></td></tr><tr><td style="font-weight:bold;vertical-align:top;">uuid</td><td style="vertical-align:top;">:</td><td><div>ne/127.0.0.1.2015-05-02.23-56-24.3c196c95-81e7-4f5d-9b44-8427c84697c9</div></td></tr><tr><td style="font-weight:bold;vertical-align:top;">wsgi</td><td style="vertical-align:top;">:</td><td><div>&lt;gluon.main.LazyWSGI object at 0x7f6dabe84a10&gt;</div></td></tr></table></div>'
tRp58
sS'frames'
p59
(lp60
(dp61
S'file'
p62
S'/home/aayn/Documents/web2py/gluon/restricted.py'
p63
sS'dump'
p64
(dp65
S'environment'
p66
S"{'A': <class 'gluon.html.A'>, 'ANY_OF': <class 'gluon.validators.ANY_OF'>, 'ASSIGNJS': <function ASSIGNJS>, 'Auth': <class 'gluon.tools.Auth'>, 'B': <class 'gluon.html.B'>, 'BEAUTIFY': <class 'gluon.html.BEAUTIFY'>, 'BODY': <class 'gluon.html.BODY'>, 'BR': <class 'gluon.html.BR'>, 'BUTTON': <class 'gluon.html.BUTTON'>, 'CAT': <class 'gluon.html.CAT'>, ...}"
p67
sS'ccode'
p68
S'<code object <module> at 0x7f6dc05f1930, file "/...applications/ne/controllers/default.py", line 12>'
p69
ssS'lnum'
p70
I224
sS'lines'
p71
(dp72
I224
S'        exec ccode in environment'
p73
sI225
S'    except HTTP:'
p74
sI226
S'        raise'
p75
sI227
S'    except RestrictedError:'
p76
sI228
S'        # do not encapsulate (obfuscate) the original RestrictedError'
p77
sI219
S'    try:'
p78
sI220
S'        if isinstance(code, types.CodeType):'
p79
sI221
S'            ccode = code'
p80
sI222
S'        else:'
p81
sI223
S'            ccode = compile2(code, layer)'
p82
ssS'call'
p83
S"(code='# -*- coding: utf-8 -*-\\n# this file is released ...ls()\\n\\nresponse._vars=response._caller(newspaper)\\n', environment={'A': <class 'gluon.html.A'>, 'ANY_OF': <class 'gluon.validators.ANY_OF'>, 'ASSIGNJS': <function ASSIGNJS>, 'Auth': <class 'gluon.tools.Auth'>, 'B': <class 'gluon.html.B'>, 'BEAUTIFY': <class 'gluon.html.BEAUTIFY'>, 'BODY': <class 'gluon.html.BODY'>, 'BR': <class 'gluon.html.BR'>, 'BUTTON': <class 'gluon.html.BUTTON'>, 'CAT': <class 'gluon.html.CAT'>, ...}, layer='/home/aayn/Documents/web2py/applications/ne/controllers/default.py')"
p84
sS'func'
p85
S'restricted'
p86
sa(dp87
g62
S'/home/aayn/Documents/web2py/applications/ne/controllers/default.py'
p88
sg64
(dp89
sg70
I355
sg71
(dp90
I352
S'    message = "This room is occupied."'
p91
sI353
S'    return locals()'
p92
sI344
S'@auth.requires_login()'
p93
sI345
S'def two_people():'
p94
sI346
S'    message = "Sorry! Two people already registered for this room."'
p95
sI347
S'    return locals()'
p96
sI348
S''
sI349
S''
sI350
S'@auth.requires_login()'
p97
sI351
S'def people():'
p98
ssg83
S'()'
p99
sg85
S'<module>'
p100
sa(dp101
g62
S'/home/aayn/Documents/web2py/gluon/globals.py'
p102
sg64
(dp103
S'self'
p104
S'undefined'
p105
sS'f'
S'<function newspaper>'
p106
ssg70
I393
sg71
(dp107
I388
S"        self.flash = ''            # used by the default view layout"
p108
sI389
S'        self.meta = Storage()      # used by web2py_ajax.html'
p109
sI390
S'        self.menu = []             # used by the default view layout'
p110
sI391
S'        self.files = []            # used by web2py_ajax.html'
p111
sI392
S'        self._vars = None'
p112
sI393
S'        self._caller = lambda f: f()'
p113
sI394
S'        self._view_environment = None'
p114
sI395
S'        self._custom_commit = None'
p115
sI396
S'        self._custom_rollback = None'
p116
sI397
S"        self.generic_patterns = ['*']"
p117
ssg83
S'(f=<function newspaper>)'
p118
sg85
S'<lambda>'
p119
sa(dp120
g62
S'/home/aayn/Documents/web2py/gluon/tools.py'
p121
sg64
(dp122
S'action'
p123
S'<function newspaper>'
p124
sS'a'
S'()'
p125
sS'b'
g45
ssg70
I3444
sg71
(dp126
I3439
S'                    flag = condition'
p127
sI3440
S'                if not flag:'
p128
sI3441
S'                    current.session.flash = self.messages.access_denied'
p129
sI3442
S'                    return call_or_redirect('
p130
sI3443
S'                        self.settings.on_failed_authorization)'
p131
sI3444
S'                return action(*a, **b)'
p132
sI3445
S'            f.__doc__ = action.__doc__'
p133
sI3446
S'            f.__name__ = action.__name__'
p134
sI3447
S'            f.__dict__.update(action.__dict__)'
p135
sI3448
S'            return f'
p136
ssg83
S'(*a=(), **b={})'
p137
sg85
S'f'
sa(dp138
g62
S'/home/aayn/Documents/web2py/applications/ne/controllers/default.py'
p139
sg64
(dp140
S'db.newspaper'
p141
S'<Table newspaper (id,choice_of_newspaper,subscription_type,subscriber)>'
p142
sS'form'
p143
g105
sS'global SQLFORM'
p144
S"<class 'gluon.sqlhtml.SQLFORM'>"
p145
sS'builtinTrue'
p146
S'True'
p147
sS').process'
p148
g105
sS'deletable'
p149
g105
sS'global db'
p150
S'<DAL uri="sqlite://storage.sqlite">'
p151
ssg70
I58
sg71
(dp152
I53
S'    return dict(form=auth())'
p153
sI54
S''
sI55
S'@auth.requires_login()'
p154
sI56
S'def newspaper():'
p155
sI57
S'    db.newspaper.subscriber.default=auth.user.id'
p156
sI58
S'    form=SQLFORM(db.newspaper, [22, 23], deletable=True).process()'
p157
sI59
S'    if form.accepted:'
p158
sI60
S"        session.flash = ('Okay!')"
p159
sI61
S'    return locals()'
p160
sI62
S''
ssg83
S'()'
p161
sg85
S'newspaper'
p162
sa(dp163
g62
S'/home/aayn/Documents/web2py/gluon/sqlhtml.py'
p164
sg64
(dp165
S'field'
p166
S'<gluon.dal.objects.Field object>'
p167
sS'builtinstr'
p168
S"<type 'str'>"
p169
sS'self'
p170
S'<gluon.sqlhtml.SQLFORM object>'
p171
sS'self.record_id'
p172
S'None'
p173
sS'field.name'
p174
S"'id'"
p175
sS'record'
p176
S'[22, 23]'
p177
ssg70
I1172
sg71
(dp178
I1167
S'                    if showid and field.name in record and field.readable:'
p179
sI1168
S'                        v = record[field.name]'
p180
sI1169
S'                        widget = SPAN(v, _id=field_id)'
p181
sI1170
S'                        self.custom.dspval.id = str(v)'
p182
sI1171
S'                        xfields.append((row_id, label, widget, comment))'
p183
sI1172
S'                    self.record_id = str(record[field.name])'
p184
sI1173
S'                self.custom.widget.id = widget'
p185
sI1174
S'                continue'
p186
sI1175
S''
sI1176
S'            if readonly and not ignore_rw and not field.readable:'
p187
ssg83
S"(self=<gluon.sqlhtml.SQLFORM object>, table=<Table newspaper (id,choice_of_newspaper,subscription_type,subscriber)>, record=[22, 23], deletable=True, linkto=None, upload=None, fields=['id', 'choice_of_newspaper', 'subscription_type'], labels=None, col3={}, submit_button='Submit', delete_label='Check to delete', showid=True, readonly=False, comments=True, keepopts=[], ignore_rw=False, record_id=None, formstyle=None, buttons=['submit'], separator=None, extra_fields=[], **attributes={})"
p188
sg85
g50
sasS'pyver'
p189
S'Python 2.7.6: /usr/bin/python (prefix: /usr)'
p190
sS'session'
p191
g57
(S's\xca\r\x00\x00<div><table><tr><td style="font-weight:bold;vertical-align:top;">auth</td><td style="vertical-align:top;">:</td><td><div><table><tr><td style="font-weight:bold;vertical-align:top;">expiration</td><td style="vertical-align:top;">:</td><td><div>3600</div></td></tr><tr><td style="font-weight:bold;vertical-align:top;">hmac_key</td><td style="vertical-align:top;">:</td><td><div>d76ee95f-dc38-49f0-bc01-c39f444a814b</div></td></tr><tr><td style="font-weight:bold;vertical-align:top;">last_visit</td><td style="vertical-align:top;">:</td><td><div>datetime.datetime(2015, 5, 2, 23, 51, 49, 339922)</div></td></tr><tr><td style="font-weight:bold;vertical-align:top;">remember_me</td><td style="vertical-align:top;">:</td><td><div>False</div></td></tr><tr><td style="font-weight:bold;vertical-align:top;">user</td><td style="vertical-align:top;">:</td><td><div><table><tr><td style="font-weight:bold;vertical-align:top;">dob</td><td style="vertical-align:top;">:</td><td><div>datetime.date(2015, 5, 25)</div></td></tr><tr><td style="font-weight:bold;vertical-align:top;">email</td><td style="vertical-align:top;">:</td><td><div>saumyafun2@yahoo.co.in</div></td></tr><tr><td style="font-weight:bold;vertical-align:top;">first_name</td><td style="vertical-align:top;">:</td><td><div>Fun2</div></td></tr><tr><td style="font-weight:bold;vertical-align:top;">home_address</td><td style="vertical-align:top;">:</td><td><div></div></td></tr><tr><td style="font-weight:bold;vertical-align:top;">id</td><td style="vertical-align:top;">:</td><td><div>15L</div></td></tr><tr><td style="font-weight:bold;vertical-align:top;">last_name</td><td style="vertical-align:top;">:</td><td><div>Shorts</div></td></tr><tr><td style="font-weight:bold;vertical-align:top;">name_of_father</td><td style="vertical-align:top;">:</td><td><div></div></td></tr><tr><td style="font-weight:bold;vertical-align:top;">phone_number</td><td style="vertical-align:top;">:</td><td><div>7799123490</div></td></tr><tr><td style="font-weight:bold;vertical-align:top;">photo</td><td style="vertical-align:top;">:</td><td><div></div></td></tr><tr><td style="font-weight:bold;vertical-align:top;">registration_id</td><td style="vertical-align:top;">:</td><td><div></div></td></tr><tr><td style="font-weight:bold;vertical-align:top;">registration_key</td><td style="vertical-align:top;">:</td><td><div></div></td></tr><tr><td style="font-weight:bold;vertical-align:top;">reset_password_key</td><td style="vertical-align:top;">:</td><td><div></div></td></tr><tr><td style="font-weight:bold;vertical-align:top;">roll_number</td><td style="vertical-align:top;">:</td><td><div>213123</div></td></tr><tr><td style="font-weight:bold;vertical-align:top;">sex</td><td style="vertical-align:top;">:</td><td><div>Female</div></td></tr></table></div></td></tr><tr><td style="font-weight:bold;vertical-align:top;">user_groups</td><td style="vertical-align:top;">:</td><td><div><table><tr><td style="font-weight:bold;vertical-align:top;">16</td><td style="vertical-align:top;">:</td><td><div>user_15</div></td></tr></table></div></td></tr></table></div></td></tr><tr><td style="font-weight:bold;vertical-align:top;">flash</td><td style="vertical-align:top;">:</td><td><div>None</div></td></tr><tr><td style="font-weight:bold;vertical-align:top;">last_orderby</td><td style="vertical-align:top;">:</td><td><div>None</div></td></tr><tr><td style="font-weight:bold;vertical-align:top;">last_query</td><td style="vertical-align:top;">:</td><td><div>db.newspaper.id&gt;0</div></td></tr></table></div>'
tRp192
sS'etype'
p193
S"<type 'exceptions.TypeError'>"
p194
sS'date'
p195
S'Sat May  2 23:56:24 2015'
p196
sS'response'
p197
g57
(S's\xa1\x1f\x00\x00<div><table><tr><td style="font-weight:bold;vertical-align:top;">body</td><td style="vertical-align:top;">:</td><td><div>&lt;cStringIO.StringO object at 0x7f6dc005d5a8&gt;</div></td></tr><tr><td style="font-weight:bold;vertical-align:top;">cookies</td><td style="vertical-align:top;">:</td><td><div><table><tr><td style="font-weight:bold;vertical-align:top;">session_id_ne</td><td style="vertical-align:top;">:</td><td><div>127.0.0.1-b6a5ff49-1c17-4875-90f7-30fcf4e74945<table><tr><td style="font-weight:bold;vertical-align:top;">comment</td><td style="vertical-align:top;">:</td><td><div></div></td></tr><tr><td style="font-weight:bold;vertical-align:top;">domain</td><td style="vertical-align:top;">:</td><td><div></div></td></tr><tr><td style="font-weight:bold;vertical-align:top;">expires</td><td style="vertical-align:top;">:</td><td><div></div></td></tr><tr><td style="font-weight:bold;vertical-align:top;">httponly</td><td style="vertical-align:top;">:</td><td><div></div></td></tr><tr><td style="font-weight:bold;vertical-align:top;">max-age</td><td style="vertical-align:top;">:</td><td><div></div></td></tr><tr><td style="font-weight:bold;vertical-align:top;">path</td><td style="vertical-align:top;">:</td><td><div>/</div></td></tr><tr><td style="font-weight:bold;vertical-align:top;">secure</td><td style="vertical-align:top;">:</td><td><div></div></td></tr><tr><td style="font-weight:bold;vertical-align:top;">version</td><td style="vertical-align:top;">:</td><td><div></div></td></tr></table></div></td></tr></table></div></td></tr><tr><td style="font-weight:bold;vertical-align:top;">delimiters</td><td style="vertical-align:top;">:</td><td><div><table><tr><td><div>{{</div></td></tr><tr><td><div>}}</div></td></tr></table></div></td></tr><tr><td style="font-weight:bold;vertical-align:top;">files</td><td style="vertical-align:top;">:</td><td><div><table></table></div></td></tr><tr><td style="font-weight:bold;vertical-align:top;">flash</td><td style="vertical-align:top;">:</td><td><div></div></td></tr><tr><td style="font-weight:bold;vertical-align:top;">form_label_separator</td><td style="vertical-align:top;">:</td><td><div>: </div></td></tr><tr><td style="font-weight:bold;vertical-align:top;">formstyle</td><td style="vertical-align:top;">:</td><td><div>table3cols</div></td></tr><tr><td style="font-weight:bold;vertical-align:top;">generic_patterns</td><td style="vertical-align:top;">:</td><td><div><table><tr><td><div>*</div></td></tr></table></div></td></tr><tr><td style="font-weight:bold;vertical-align:top;">google_analytics_id</td><td style="vertical-align:top;">:</td><td><div>None</div></td></tr><tr><td style="font-weight:bold;vertical-align:top;">headers</td><td style="vertical-align:top;">:</td><td><div><table><tr><td style="font-weight:bold;vertical-align:top;">X-Powered-By</td><td style="vertical-align:top;">:</td><td><div>web2py</div></td></tr></table></div></td></tr><tr><td style="font-weight:bold;vertical-align:top;">logo</td><td style="vertical-align:top;">:</td><td><div><a class="navbar-brand" href="http://www.google.com"><b>IT<span>2</span>py</b>&trade;&nbsp;</a></div></td></tr><tr><td style="font-weight:bold;vertical-align:top;">menu</td><td style="vertical-align:top;">:</td><td><div><table><tr><td><div><table><tr><td><div>Home</div></td></tr><tr><td><div>False</div></td></tr><tr><td><div>/ne/default/index</div></td></tr><tr><td><div><table></table></div></td></tr></table></div></td></tr><tr><td><div><table><tr><td><div><span class="highlighted">Newspaper</span></div></td></tr><tr><td><div>False</div></td></tr><tr><td><div>/ne/default/newspaper</div></td></tr><tr><td><div><table><tr><td><div><table><tr><td><div>New Newspaper Subscription</div></td></tr><tr><td><div>False</div></td></tr><tr><td><div>/ne/default/newspaper</div></td></tr><tr><td><div>[]</div></td></tr></table></div></td></tr><tr><td><div><table><tr><td><div>View Existing Subscriptions</div></td></tr><tr><td><div>False</div></td></tr><tr><td><div>/ne/default/show_newspaper_subscriptions</div></td></tr><tr><td><div>[]</div></td></tr></table></div></td></tr></table></div></td></tr></table></div></td></tr></table></div></td></tr><tr><td style="font-weight:bold;vertical-align:top;">meta</td><td style="vertical-align:top;">:</td><td><div><table><tr><td style="font-weight:bold;vertical-align:top;">author</td><td style="vertical-align:top;">:</td><td><div>Your Name &lt;you@example.com&gt;</div></td></tr><tr><td style="font-weight:bold;vertical-align:top;">generator</td><td style="vertical-align:top;">:</td><td><div>Web2py Web Framework</div></td></tr><tr><td style="font-weight:bold;vertical-align:top;">keywords</td><td style="vertical-align:top;">:</td><td><div>web2py, python, framework</div></td></tr></table></div></td></tr><tr><td style="font-weight:bold;vertical-align:top;">models_to_run</td><td style="vertical-align:top;">:</td><td><div><table><tr><td><div>^\\w+\\.py$</div></td></tr><tr><td><div>^default/\\w+\\.py$</div></td></tr><tr><td><div>^default/newspaper/\\w+\\.py$</div></td></tr></table></div></td></tr><tr><td style="font-weight:bold;vertical-align:top;">postprocessing</td><td style="vertical-align:top;">:</td><td><div><table></table></div></td></tr><tr><td style="font-weight:bold;vertical-align:top;">session_client</td><td style="vertical-align:top;">:</td><td><div>127.0.0.1</div></td></tr><tr><td style="font-weight:bold;vertical-align:top;">session_cookie_compression_level</td><td style="vertical-align:top;">:</td><td><div>None</div></td></tr><tr><td style="font-weight:bold;vertical-align:top;">session_cookie_expires</td><td style="vertical-align:top;">:</td><td><div>None</div></td></tr><tr><td style="font-weight:bold;vertical-align:top;">session_cookie_key</td><td style="vertical-align:top;">:</td><td><div>None</div></td></tr><tr><td style="font-weight:bold;vertical-align:top;">session_data_name</td><td style="vertical-align:top;">:</td><td><div>session_data_ne</div></td></tr><tr><td style="font-weight:bold;vertical-align:top;">session_file</td><td style="vertical-align:top;">:</td><td><div>&lt;open file &#x27;/home/aayn/Documents/web2py/applications/ne/sessions/0ce/021/127.0.0.1-b6a5ff49-1c17-4875-90f7-30fcf4e74945&#x27;, mode &#x27;rb+&#x27; at 0x7f6dabdd3e40&gt;</div></td></tr><tr><td style="font-weight:bold;vertical-align:top;">session_filename</td><td style="vertical-align:top;">:</td><td><div>/home/aayn/Documents/web2py/applications/ne/sessions/127.0.0.1-b6a5ff49-1c17-4875-90f7-30fcf4e74945</div></td></tr><tr><td style="font-weight:bold;vertical-align:top;">session_hash</td><td style="vertical-align:top;">:</td><td><div>18c9452babbc3c8252471d09a7f290e4</div></td></tr><tr><td style="font-weight:bold;vertical-align:top;">session_id</td><td style="vertical-align:top;">:</td><td><div>127.0.0.1-b6a5ff49-1c17-4875-90f7-30fcf4e74945</div></td></tr><tr><td style="font-weight:bold;vertical-align:top;">session_id_name</td><td style="vertical-align:top;">:</td><td><div>session_id_ne</div></td></tr><tr><td style="font-weight:bold;vertical-align:top;">session_locked</td><td style="vertical-align:top;">:</td><td><div>True</div></td></tr><tr><td style="font-weight:bold;vertical-align:top;">session_masterapp</td><td style="vertical-align:top;">:</td><td><div>ne</div></td></tr><tr><td style="font-weight:bold;vertical-align:top;">session_new</td><td style="vertical-align:top;">:</td><td><div>False</div></td></tr><tr><td style="font-weight:bold;vertical-align:top;">session_storage_type</td><td style="vertical-align:top;">:</td><td><div>file</div></td></tr><tr><td style="font-weight:bold;vertical-align:top;">status</td><td style="vertical-align:top;">:</td><td><div>200</div></td></tr><tr><td style="font-weight:bold;vertical-align:top;">subtitle</td><td style="vertical-align:top;">:</td><td><div></div></td></tr><tr><td style="font-weight:bold;vertical-align:top;">title</td><td style="vertical-align:top;">:</td><td><div>Ne</div></td></tr><tr><td style="font-weight:bold;vertical-align:top;">view</td><td style="vertical-align:top;">:</td><td><div>default/newspaper.html</div></td></tr></table></div>'
tRp198
sS'locals'
p199
(dp200
S'comment'
p201
S"''"
p202
sS'showid'
p203
g147
sS'sep'
p204
S"': '"
p205
sS'labels'
p206
S'None'
p207
sS'delete_label'
p208
S"'Check to delete'"
p209
sS'nbsp'
p210
S'<gluon.html.XML object>'
p211
sS'submit_button'
p212
S"'Submit'"
p213
sS'table'
p214
S'<Table newspaper (id,choice_of_newspaper,subscription_type,subscriber)>'
p215
sS'xfields'
p216
S'[]'
p217
sS'field'
p218
S'<gluon.dal.objects.Field object>'
p219
sS'extra_fields'
p220
S'[]'
p221
sS'comments'
p222
g147
sS'label'
p223
S'<gluon.html.LABEL object>'
p224
sS'buttons'
p225
S"['submit']"
p226
sS'ignore_rw'
p227
S'False'
p228
sS'readonly'
p229
g228
sS'record_id'
p230
S'None'
p231
sS'separator'
p232
S'None'
p233
sS'formstyle'
p234
S'None'
p235
sS'widget'
p236
S"''"
p237
sS'ofields'
p238
S'None'
p239
sS'field_id'
p240
S"'newspaper_id'"
p241
sS'col3'
p242
g45
sS'T'
S'<gluon.languages.translator object>'
p243
sS'linkto'
p244
S'None'
p245
sS'f'
S'<gluon.dal.objects.Field object>'
p246
sS'fields'
p247
S"['id', 'choice_of_newspaper', 'subscription_type']"
p248
sS'upload'
p249
S'None'
p250
sS'keyed'
p251
g228
sS'record'
p252
S'[22, 23]'
p253
sS'fieldname'
p254
S"'id'"
p255
sS'keepopts'
p256
S'[]'
p257
sS'attributes'
p258
g45
sS'row_id'
p259
S"'newspaper_id__row'"
p260
sS'self'
p261
S'<gluon.sqlhtml.SQLFORM object>'
p262
sS'deletable'
p263
g147
sssS'traceback'
p264
S'Traceback (most recent call last):\n  File "/home/aayn/Documents/web2py/gluon/restricted.py", line 224, in restricted\n    exec ccode in environment\n  File "/home/aayn/Documents/web2py/applications/ne/controllers/default.py", line 355, in <module>\n  File "/home/aayn/Documents/web2py/gluon/globals.py", line 393, in <lambda>\n    self._caller = lambda f: f()\n  File "/home/aayn/Documents/web2py/gluon/tools.py", line 3444, in f\n    return action(*a, **b)\n  File "/home/aayn/Documents/web2py/applications/ne/controllers/default.py", line 58, in newspaper\n    form=SQLFORM(db.newspaper, [22, 23], deletable=True).process()\n  File "/home/aayn/Documents/web2py/gluon/sqlhtml.py", line 1172, in __init__\n    self.record_id = str(record[field.name])\nTypeError: list indices must be integers, not str\n'
p265
s.