(dp1
S'output'
p2
S"<class 'sqlite3.IntegrityError'> FOREIGN KEY constraint failed"
p3
sS'layer'
p4
S'/home/aayn/Documents/web2py/applications/ne/controllers/default.py'
p5
sS'code'
p6
S'# -*- coding: utf-8 -*-\n# this file is released under public domain and you can use without limitations\n\n#########################################################################\n## This is a sample controller\n## - index is the default action of any application\n## - user is required for authentication and authorization\n## - download is for downloading files uploaded in the db (does streaming)\n## - api is an example of Hypermedia API support and access control\n#########################################################################\n\ndef index():\n    """\n    example action using the internationalization operator T and flash\n    rendered by views/default/index.html or views/generic.html\n\n    if you need a simple wiki simply replace the two lines below with:\n    return auth.wiki()\n    """\n    #response.flash = T("Welcome to the IIIT Hostel Portal!")\n    return dict(message=T(\'Hello World\'))\n\n\n@auth.requires_login()\ndef hello():\n    return dict(message=\'hello %(first_name)s\' % auth.user)\n\n\n#def register():\n #   admin_auth = session.auth\n  #  auth.is_logged_in = lambda: False\n   # def post_register(form):\n    #    session.auth = admin_auth\n    #    auth.user = session.auth.user\n    #auth.settings.register_onaccept = post_register\n    #return dict(form=auth.register())\n\ndef user():\n    """\n    exposes:\n    http://..../[app]/default/user/login\n    http://..../[app]/default/user/logout\n    http://..../[app]/default/user/register\n    http://..../[app]/default/user/profile\n    http://..../[app]/default/user/retrieve_password\n    http://..../[app]/default/user/change_password\n    http://..../[app]/default/user/manage_users (requires membership in\n    use @auth.requires_login()\n        @auth.requires_membership(\'group name\')\n        @auth.requires_permission(\'read\',\'table name\',record_id)\n    to decorate functions that need access control\n    """\n    return dict(form=auth())\n\n@auth.requires_login()\ndef newspaper():\n    db.newspaper.subscriber.default=auth.user.id\n    form=SQLFORM(db.newspaper)\n    if form.accepted:\n        session.flash = (\'Okay!\')\n    return locals()\n\n\n@auth.requires_login()\ndef del_old_subscriptions():\n    i = 0\n\n@auth.requires_login()\ndef show_newspaper_subscriptions():\n    subs = db(db.newspaper.subscriber==auth.user.id).select(db.newspaper.id, db.newspaper.choice_of_newspaper, db.newspaper.subscription_type) \n    return locals()\n\n@cache.action()\ndef download():\n    """\n    allows downloading of uploaded files\n    http://..../[app]/default/download/[filename]\n    """\n    return response.download(request, db)\n\n\ndef call():\n    """\n    exposes services. for example:\n    http://..../[app]/default/call/jsonrpc\n    decorate with @services.jsonrpc the functions to expose\n    supports xml, json, xmlrpc, jsonrpc, amfrpc, rss, csv\n    """\n    return service()\n\n\n@auth.requires_login()\ndef already_got_room():\n    message = "Error! User already registered for another room."\n    #response.flash = "User already registered"\n    return locals()\n\n\n@auth.requires_login()\ndef room_year():\n    j = (db(db.ug2k15.student==auth.user.id).count() +\n         db(db.ug2k14.student==auth.user.id).count() +\n         db(db.ug2k13.student==auth.user.id).count() +\n         db(db.fug2k15.student==auth.user.id).count() +\n         db(db.fug2k14.student==auth.user.id).count() +\n         db(db.fug2k13.student==auth.user.id).count())\n    i = db(db.room_year.student==auth.user.id).count()\n    if j == 0:\n        db(db.room_year.student == auth.user.id).delete()\n    elif i > 0:\n        session.flash = "You have already registered."\n        redirect(URL(\'default\', \'already_got_room\'))\n    db.room_year.student.default=auth.user.id\n    form=SQLFORM(db.room_year).process()\n    if form.vars.batch  ==  \'UG2K15\':\n        if auth.user.sex == \'Female\':\n            redirect(URL(\'default\', \'FUG2K15\', args=["Parul", "Nivas", 1]))\n        else:\n            redirect(URL(\'default\', \'UG2K15\', args=["Palash", "Nivas", 1]))\n\n\n    elif form.vars.batch  ==  \'UG2K14\':\n        if auth.user.sex == \'Female\':\n            redirect(URL(\'default\', \'FUG2K14\', args=["Parul", "Nivas", 1]))\n        else:\n            redirect(URL(\'default\', \'UG2K14\', args=["Palash", "Nivas", 1]))\n\n\n    elif form.vars.batch  ==  \'UG2K13 and before\':\n        if auth.user.sex == \'Female\':\n            redirect(URL(\'default\', \'FUG2K13\', args=["Parijaat", "Nivas", 1]))\n        else:\n            redirect(URL(\'default\', \'UG2K13\', args=["Palash", "Nivas", 1]))\n    return locals()\n\n\n@auth.requires_login()\ndef UG2K15():\n    hfname = request.args\n    i = db(db.ug2k15.student==auth.user.id).count()\n    if i > 0:\n        session.flash = "You have already registered."\n        redirect(URL(\'default\', \'already_got_room\'))\n\n    db.ug2k15.student.default=auth.user.id\n    db.ug2k15.student.requires= IS_NOT_IN_DB(db, db.ug2k15.student)\n    form = SQLFORM(db.ug2k15).process()\n    count = db(db.ug2k15.room_number == form.vars.room_number).count()\n    if count > 2:\n        message = "This room already has two occupants."\n        db(db.ug2k15.student == auth.user.id).delete()\n        db(db.room_year.student == auth.user.id).delete()\n        session.flash = message\n        redirect(URL(\'default\', \'two_people\'))\n    elif form.accepted:\n        session.flash = "Registered!"\n        redirect(URL(\'default\', \'index\'))\n    return locals()\n\n\n@auth.requires_login()\ndef FUG2K15():\n    hname = request.args\n    i = db(db.fug2k15.student==auth.user.id).count()\n    if i > 0:\n        session.flash = "You have already registered."\n        redirect(URL(\'default\', \'already_got_room\'))\n\n    db.fug2k15.student.default=auth.user.id\n    db.fug2k15.student.requires= IS_NOT_IN_DB(db, db.fug2k15.student)\n    form = SQLFORM(db.fug2k15).process()\n    count = db(db.fug2k15.room_number == form.vars.room_number).count()\n    if count > 2:\n        message = "This room already has two occupants."\n        db(db.fug2k15.student == auth.user.id).delete()\n        db(db.room_year.student == auth.user.id).delete()\n        session.flash = message\n        redirect(URL(\'default\', \'two_people\'))\n    elif form.accepted:\n        session.flash = "Registered!"\n        redirect(URL(\'default\', \'index\'))\n    return locals()\n\n\n@auth.requires_login()\ndef UG2K14():\n    hname = request.args\n    i = db(db.ug2k14.student==auth.user.id).count()\n    if i > 0:\n        session.flash = "You have already registered."\n        redirect(URL(\'default\', \'already_got_room\'))\n\n    db.ug2k14.student.default=auth.user.id\n    db.ug2k14.student.requires= IS_NOT_IN_DB(db, db.ug2k14.student)\n    form = SQLFORM(db.ug2k14).process()\n    count = db(db.ug2k14.room_number == form.vars.room_number).count()\n    if count > 1:\n        message = "This room already has an occupant."\n        db(db.ug2k14.student == auth.user.id).delete()\n        db(db.room_year.student == auth.user.id).delete()\n        session.flash = message\n        redirect(URL(\'default\', \'people\'))\n    elif form.accepted:\n        session.flash = "Registered!"\n        redirect(URL(\'default\', \'index\'))\n    return locals()\n\n\n@auth.requires_login()\ndef FUG2K14():\n    hname = request.args\n    i = db(db.fug2k14.student==auth.user.id).count()\n    if i > 0:\n        session.flash = "You have already registered."\n        redirect(URL(\'default\', \'already_got_room\'))\n\n    db.fug2k14.student.default=auth.user.id\n    db.fug2k14.student.requires= IS_NOT_IN_DB(db, db.fug2k14.student)\n    form = SQLFORM(db.fug2k14).process()\n    count = db(db.fug2k14.room_number == form.vars.room_number).count()\n    if count > 1:\n        message = "This room already has an occupant."\n        db(db.fug2k14.student == auth.user.id).delete()\n        db(db.room_year.student == auth.user.id).delete()\n        session.flash = message\n        redirect(URL(\'default\', \'people\'))\n    elif form.accepted:\n        session.flash = "Registered!"\n        redirect(URL(\'default\', \'index\'))\n    return locals()\n\n\n\n@auth.requires_login()\ndef UG2K13():\n    hname = request.args[0]\n    i = db(db.ug2k13.student==auth.user.id).count()\n    if i > 0:\n        session.flash = "You have already registered."\n        redirect(URL(\'default\', \'already_got_room\'))\n\n    db.ug2k13.student.default=auth.user.id\n    db.ug2k13.student.requires= IS_NOT_IN_DB(db, db.ug2k13.student)\n    form = SQLFORM(db.ug2k13).process()\n    count = db(db.ug2k13.room_number == form.vars.room_number).count()\n    if count > 1:\n        message = "This room already has an occupant."\n        db(db.ug2k13.student == auth.user.id).delete()\n        db(db.room_year.student == auth.user.id).delete()\n        session.flash = message\n        redirect(URL(\'default\', \'people\'))\n    elif form.accepted:\n        session.flash = "Registered!"\n        redirect(URL(\'default\', \'index\'))\n    return locals()\n\n\n@auth.requires_login()\ndef FUG2K13():\n    hname = request.args[0]\n    i = db(db.fug2k13.student==auth.user.id).count()\n    if i > 0:\n        session.flash = "You have already registered."\n        redirect(URL(\'default\', \'already_got_room\'))\n\n    db.fug2k13.student.default=auth.user.id\n    db.fug2k13.student.requires= IS_NOT_IN_DB(db, db.fug2k13.student)\n    form = SQLFORM(db.fug2k13).process()\n    count = db(db.fug2k13.room_number == form.vars.room_number).count()\n    if count > 1:\n        message = "This room already has an occupant."\n        db(db.fug2k13.student == auth.user.id).delete()\n        db(db.room_year.student == auth.user.id).delete()\n        session.flash = message\n        redirect(URL(\'default\', \'people\'))\n    elif form.accepted:\n        session.flash = "Registered!"\n        redirect(URL(\'default\', \'index\'))\n    return locals()\n\n\n@auth.requires_login()\ndef two_people():\n    message = "Sorry! Two people already registered for this room."\n    return locals()\n\n\n@auth.requires_login()\ndef people():\n    message = "This room is occupied."\n    return locals()\n\nresponse._vars=response._caller(room_year)\n'
p7
sS'snapshot'
p8
(dp9
S'exception'
p10
(dp11
S'__module__'
p12
S"'sqlite3'"
p13
sS'__getslice__'
p14
S"<method-wrapper '__getslice__' of IntegrityError object>"
p15
sS'__str__'
p16
S"<method-wrapper '__str__' of IntegrityError object>"
p17
sS'__reduce__'
p18
S'<built-in method __reduce__ of IntegrityError object>'
p19
sS'__dict__'
p20
S'{}'
p21
sS'__sizeof__'
p22
S'<built-in method __sizeof__ of IntegrityError object>'
p23
sS'__weakref__'
p24
S'None'
p25
sS'__init__'
p26
S"<method-wrapper '__init__' of IntegrityError object>"
p27
sS'__setattr__'
p28
S"<method-wrapper '__setattr__' of IntegrityError object>"
p29
sS'__reduce_ex__'
p30
S'<built-in method __reduce_ex__ of IntegrityError object>'
p31
sS'__new__'
p32
S'<built-in method __new__ of type object>'
p33
sS'__format__'
p34
S'<built-in method __format__ of IntegrityError object>'
p35
sS'__class__'
p36
S"<class 'sqlite3.IntegrityError'>"
p37
sS'__doc__'
p38
S'None'
p39
sS'__getitem__'
p40
S"<method-wrapper '__getitem__' of IntegrityError object>"
p41
sS'__setstate__'
p42
S'<built-in method __setstate__ of IntegrityError object>'
p43
sS'__getattribute__'
p44
S"<method-wrapper '__getattribute__' of IntegrityError object>"
p45
sS'args'
p46
S"('FOREIGN KEY constraint failed',)"
p47
sS'__subclasshook__'
p48
S'<built-in method __subclasshook__ of type object>'
p49
sS'__unicode__'
p50
S'<built-in method __unicode__ of IntegrityError object>'
p51
sS'__delattr__'
p52
S"<method-wrapper '__delattr__' of IntegrityError object>"
p53
sS'__repr__'
p54
S"<method-wrapper '__repr__' of IntegrityError object>"
p55
sS'__hash__'
p56
S"<method-wrapper '__hash__' of IntegrityError object>"
p57
ssS'evalue'
p58
S'FOREIGN KEY constraint failed'
p59
sS'request'
p60
cgluon.html
XML_unpickle
p61
(S's\xd5`\x00\x00<div><table><tr><td style="font-weight:bold;vertical-align:top;">ajax</td><td style="vertical-align:top;">:</td><td><div>False</div></td></tr><tr><td style="font-weight:bold;vertical-align:top;">application</td><td style="vertical-align:top;">:</td><td><div>ne</div></td></tr><tr><td style="font-weight:bold;vertical-align:top;">args</td><td style="vertical-align:top;">:</td><td><div><table></table></div></td></tr><tr><td style="font-weight:bold;vertical-align:top;">cid</td><td style="vertical-align:top;">:</td><td><div>None</div></td></tr><tr><td style="font-weight:bold;vertical-align:top;">client</td><td style="vertical-align:top;">:</td><td><div>127.0.0.1</div></td></tr><tr><td style="font-weight:bold;vertical-align:top;">controller</td><td style="vertical-align:top;">:</td><td><div>default</div></td></tr><tr><td style="font-weight:bold;vertical-align:top;">cookies</td><td style="vertical-align:top;">:</td><td><div><table><tr><td style="font-weight:bold;vertical-align:top;">session_id_admin</td><td style="vertical-align:top;">:</td><td><div>127.0.0.1-2c614028-9a8f-4426-abe6-8d752dbea3e7<table><tr><td style="font-weight:bold;vertical-align:top;">comment</td><td style="vertical-align:top;">:</td><td><div></div></td></tr><tr><td style="font-weight:bold;vertical-align:top;">domain</td><td style="vertical-align:top;">:</td><td><div></div></td></tr><tr><td style="font-weight:bold;vertical-align:top;">expires</td><td style="vertical-align:top;">:</td><td><div></div></td></tr><tr><td style="font-weight:bold;vertical-align:top;">httponly</td><td style="vertical-align:top;">:</td><td><div></div></td></tr><tr><td style="font-weight:bold;vertical-align:top;">max-age</td><td style="vertical-align:top;">:</td><td><div></div></td></tr><tr><td style="font-weight:bold;vertical-align:top;">path</td><td style="vertical-align:top;">:</td><td><div></div></td></tr><tr><td style="font-weight:bold;vertical-align:top;">secure</td><td style="vertical-align:top;">:</td><td><div></div></td></tr><tr><td style="font-weight:bold;vertical-align:top;">version</td><td style="vertical-align:top;">:</td><td><div></div></td></tr></table></div></td></tr><tr><td style="font-weight:bold;vertical-align:top;">session_id_ne</td><td style="vertical-align:top;">:</td><td><div>127.0.0.1-f833bce3-c3d7-4fd0-a296-a93eb4aa6b7b<table><tr><td style="font-weight:bold;vertical-align:top;">comment</td><td style="vertical-align:top;">:</td><td><div></div></td></tr><tr><td style="font-weight:bold;vertical-align:top;">domain</td><td style="vertical-align:top;">:</td><td><div></div></td></tr><tr><td style="font-weight:bold;vertical-align:top;">expires</td><td style="vertical-align:top;">:</td><td><div></div></td></tr><tr><td style="font-weight:bold;vertical-align:top;">httponly</td><td style="vertical-align:top;">:</td><td><div></div></td></tr><tr><td style="font-weight:bold;vertical-align:top;">max-age</td><td style="vertical-align:top;">:</td><td><div></div></td></tr><tr><td style="font-weight:bold;vertical-align:top;">path</td><td style="vertical-align:top;">:</td><td><div></div></td></tr><tr><td style="font-weight:bold;vertical-align:top;">secure</td><td style="vertical-align:top;">:</td><td><div></div></td></tr><tr><td style="font-weight:bold;vertical-align:top;">version</td><td style="vertical-align:top;">:</td><td><div></div></td></tr></table></div></td></tr><tr><td style="font-weight:bold;vertical-align:top;">session_id_welcome</td><td style="vertical-align:top;">:</td><td><div>127.0.0.1-a13bb3e2-e8e6-4192-888e-312a4021dc21<table><tr><td style="font-weight:bold;vertical-align:top;">comment</td><td style="vertical-align:top;">:</td><td><div></div></td></tr><tr><td style="font-weight:bold;vertical-align:top;">domain</td><td style="vertical-align:top;">:</td><td><div></div></td></tr><tr><td style="font-weight:bold;vertical-align:top;">expires</td><td style="vertical-align:top;">:</td><td><div></div></td></tr><tr><td style="font-weight:bold;vertical-align:top;">httponly</td><td style="vertical-align:top;">:</td><td><div></div></td></tr><tr><td style="font-weight:bold;vertical-align:top;">max-age</td><td style="vertical-align:top;">:</td><td><div></div></td></tr><tr><td style="font-weight:bold;vertical-align:top;">path</td><td style="vertical-align:top;">:</td><td><div></div></td></tr><tr><td style="font-weight:bold;vertical-align:top;">secure</td><td style="vertical-align:top;">:</td><td><div></div></td></tr><tr><td style="font-weight:bold;vertical-align:top;">version</td><td style="vertical-align:top;">:</td><td><div></div></td></tr></table></div></td></tr></table></div></td></tr><tr><td style="font-weight:bold;vertical-align:top;">env</td><td style="vertical-align:top;">:</td><td><div><table><tr><td style="font-weight:bold;vertical-align:top;">CONTENT_LENGTH</td><td style="vertical-align:top;">:</td><td><div>457</div></td></tr><tr><td style="font-weight:bold;vertical-align:top;">CONTENT_TYPE</td><td style="vertical-align:top;">:</td><td><div>multipart/form-data; boundary=---------------------------18090302967981818921274798118</div></td></tr><tr><td style="font-weight:bold;vertical-align:top;">HTTP_ACCEPT</td><td style="vertical-align:top;">:</td><td><div>text/html,application/xhtml+xml,application/xml;q=0.9,*/*;q=0.8</div></td></tr><tr><td style="font-weight:bold;vertical-align:top;">HTTP_ACCEPT_ENCODING</td><td style="vertical-align:top;">:</td><td><div>gzip, deflate</div></td></tr><tr><td style="font-weight:bold;vertical-align:top;">HTTP_ACCEPT_LANGUAGE</td><td style="vertical-align:top;">:</td><td><div>en-US,en;q=0.5</div></td></tr><tr><td style="font-weight:bold;vertical-align:top;">HTTP_CONNECTION</td><td style="vertical-align:top;">:</td><td><div>keep-alive</div></td></tr><tr><td style="font-weight:bold;vertical-align:top;">HTTP_CONTENT_LENGTH</td><td style="vertical-align:top;">:</td><td><div>457</div></td></tr><tr><td style="font-weight:bold;vertical-align:top;">HTTP_CONTENT_TYPE</td><td style="vertical-align:top;">:</td><td><div>multipart/form-data; boundary=---------------------------18090302967981818921274798118</div></td></tr><tr><td style="font-weight:bold;vertical-align:top;">HTTP_COOKIE</td><td style="vertical-align:top;">:</td><td><div>_ga=GA1.1.637305383.1418150911; session_id_welcome=127.0.0.1-a13bb3e2-e8e6-4192-888e-312a4021dc21; session_id_admin=127.0.0.1-2c614028-9a8f-4426-abe6-8d752dbea3e7; session_id_ne=127.0.0.1-f833bce3-c3d7-4fd0-a296-a93eb4aa6b7b</div></td></tr><tr><td style="font-weight:bold;vertical-align:top;">HTTP_HOST</td><td style="vertical-align:top;">:</td><td><div>127.0.0.1:8000</div></td></tr><tr><td style="font-weight:bold;vertical-align:top;">HTTP_REFERER</td><td style="vertical-align:top;">:</td><td><div>http://127.0.0.1:8000/ne/default/room_year</div></td></tr><tr><td style="font-weight:bold;vertical-align:top;">HTTP_USER_AGENT</td><td style="vertical-align:top;">:</td><td><div>Mozilla/5.0 (X11; Ubuntu; Linux x86_64; rv:35.0) Gecko/20100101 Firefox/35.0</div></td></tr><tr><td style="font-weight:bold;vertical-align:top;">PATH_INFO</td><td style="vertical-align:top;">:</td><td><div>/ne/default/room_year</div></td></tr><tr><td style="font-weight:bold;vertical-align:top;">QUERY_STRING</td><td style="vertical-align:top;">:</td><td><div></div></td></tr><tr><td style="font-weight:bold;vertical-align:top;">REMOTE_ADDR</td><td style="vertical-align:top;">:</td><td><div>127.0.0.1</div></td></tr><tr><td style="font-weight:bold;vertical-align:top;">REMOTE_PORT</td><td style="vertical-align:top;">:</td><td><div>47499</div></td></tr><tr><td style="font-weight:bold;vertical-align:top;">REQUEST_METHOD</td><td style="vertical-align:top;">:</td><td><div>POST</div></td></tr><tr><td style="font-weight:bold;vertical-align:top;">SCRIPT_NAME</td><td style="vertical-align:top;">:</td><td><div></div></td></tr><tr><td style="font-weight:bold;vertical-align:top;">SERVER_NAME</td><td style="vertical-align:top;">:</td><td><div>localhostess</div></td></tr><tr><td style="font-weight:bold;vertical-align:top;">SERVER_PORT</td><td style="vertical-align:top;">:</td><td><div>8000</div></td></tr><tr><td style="font-weight:bold;vertical-align:top;">SERVER_PROTOCOL</td><td style="vertical-align:top;">:</td><td><div>HTTP/1.1</div></td></tr><tr><td style="font-weight:bold;vertical-align:top;">SERVER_SOFTWARE</td><td style="vertical-align:top;">:</td><td><div>Rocket 1.2.6</div></td></tr><tr><td style="font-weight:bold;vertical-align:top;">app_folders</td><td style="vertical-align:top;">:</td><td><div>set([&#x27;/home/aayn/Documents/web2py/applications/welcome/&#x27;, &#x27;/home/aayn/Documents/web2py/applications/ne/&#x27;, &#x27;/home/aayn/Documents/web2py/applications/admin/&#x27;])</div></td></tr><tr><td style="font-weight:bold;vertical-align:top;">applications_parent</td><td style="vertical-align:top;">:</td><td><div>/home/aayn/Documents/web2py</div></td></tr><tr><td style="font-weight:bold;vertical-align:top;">cmd_args</td><td style="vertical-align:top;">:</td><td><div><table></table></div></td></tr><tr><td style="font-weight:bold;vertical-align:top;">cmd_options</td><td style="vertical-align:top;">:</td><td><div>&lt;Values at 0x7f09b5eeef80: {&#x27;verbose&#x27;: False, &#x27;ip&#x27;: &#x27;127.0.0.1&#x27;, &#x27;debuglevel&#x27;: 30, &#x27;with_scheduler&#x27;: False, &#x27;ips&#x27;: [&#x27;127.0.1.1&#x27;], &#x27;shutdown_timeout&#x27;: 5, &#x27;taskbar&#x27;: False, &#x27;with_coverage&#x27;: False, &#x27;scheduler_groups&#x27;: None, &#x27;port&#x27;: 8000, &#x27;maxthreads&#x27;: None, &#x27;softcron&#x27;: False, &#x27;server_name&#x27;: &#x27;localhostess&#x27;, &#x27;bpython&#x27;: False, &#x27;nogui&#x27;: False, &#x27;pid_filename&#x27;: &#x27;httpserver.pid&#x27;, &#x27;extcron&#x27;: False, &#x27;runcron&#x27;: False, &#x27;run_system_tests&#x27;: False, &#x27;test&#x27;: None, &#x27;folder&#x27;: &#x27;/home/aayn/Documents/web2py&#x27;, &#x27;config&#x27;: &#x27;&#x27;, &#x27;minthreads&#x27;: None, &#x27;shell&#x27;: None, &#x27;run&#x27;: &#x27;&#x27;, &#x27;log_filename&#x27;: &#x27;httpserver.log&#x27;, &#x27;profiler_dir&#x27;: None, &#x27;args&#x27;: [&#x27;&#x27;], &#x27;socket_timeout&#x27;: 5, &#x27;ssl_ca_certificate&#x27;: None, &#x27;scheduler&#x27;: None, &#x27;interfaces&#x27;: None, &#x27;ssl_private_key&#x27;: &#x27;&#x27;, &#x27;gae&#x27;: None, &#x27;password&#x27;: &#x27;&lt;ask&gt;&#x27;, &#x27;request_queue_size&#x27;: 5, &#x27;ssl_certificate&#x27;: &#x27;&#x27;, &#x27;cronjob&#x27;: False, &#x27;numthreads&#x27;: None, &#x27;quiet&#x27;: False, &#x27;import_models&#x27;: False, &#x27;timeout&#x27;: 10, &#x27;plain&#x27;: False, &#x27;nobanner&#x27;: False}&gt;</div></td></tr><tr><td style="font-weight:bold;vertical-align:top;">content_length</td><td style="vertical-align:top;">:</td><td><div>457</div></td></tr><tr><td style="font-weight:bold;vertical-align:top;">content_type</td><td style="vertical-align:top;">:</td><td><div>multipart/form-data; boundary=---------------------------18090302967981818921274798118</div></td></tr><tr><td style="font-weight:bold;vertical-align:top;">db_sessions</td><td style="vertical-align:top;">:</td><td><div>set([])</div></td></tr><tr><td style="font-weight:bold;vertical-align:top;">debugging</td><td style="vertical-align:top;">:</td><td><div>True</div></td></tr><tr><td style="font-weight:bold;vertical-align:top;">gluon_parent</td><td style="vertical-align:top;">:</td><td><div>/home/aayn/Documents/web2py</div></td></tr><tr><td style="font-weight:bold;vertical-align:top;">http_accept</td><td style="vertical-align:top;">:</td><td><div>text/html,application/xhtml+xml,application/xml;q=0.9,*/*;q=0.8</div></td></tr><tr><td style="font-weight:bold;vertical-align:top;">http_accept_encoding</td><td style="vertical-align:top;">:</td><td><div>gzip, deflate</div></td></tr><tr><td style="font-weight:bold;vertical-align:top;">http_accept_language</td><td style="vertical-align:top;">:</td><td><div>en-US,en;q=0.5</div></td></tr><tr><td style="font-weight:bold;vertical-align:top;">http_connection</td><td style="vertical-align:top;">:</td><td><div>keep-alive</div></td></tr><tr><td style="font-weight:bold;vertical-align:top;">http_content_length</td><td style="vertical-align:top;">:</td><td><div>457</div></td></tr><tr><td style="font-weight:bold;vertical-align:top;">http_content_type</td><td style="vertical-align:top;">:</td><td><div>multipart/form-data; boundary=---------------------------18090302967981818921274798118</div></td></tr><tr><td style="font-weight:bold;vertical-align:top;">http_cookie</td><td style="vertical-align:top;">:</td><td><div>_ga=GA1.1.637305383.1418150911; session_id_welcome=127.0.0.1-a13bb3e2-e8e6-4192-888e-312a4021dc21; session_id_admin=127.0.0.1-2c614028-9a8f-4426-abe6-8d752dbea3e7; session_id_ne=127.0.0.1-f833bce3-c3d7-4fd0-a296-a93eb4aa6b7b</div></td></tr><tr><td style="font-weight:bold;vertical-align:top;">http_host</td><td style="vertical-align:top;">:</td><td><div>127.0.0.1:8000</div></td></tr><tr><td style="font-weight:bold;vertical-align:top;">http_referer</td><td style="vertical-align:top;">:</td><td><div>http://127.0.0.1:8000/ne/default/room_year</div></td></tr><tr><td style="font-weight:bold;vertical-align:top;">http_user_agent</td><td style="vertical-align:top;">:</td><td><div>Mozilla/5.0 (X11; Ubuntu; Linux x86_64; rv:35.0) Gecko/20100101 Firefox/35.0</div></td></tr><tr><td style="font-weight:bold;vertical-align:top;">is_jython</td><td style="vertical-align:top;">:</td><td><div>False</div></td></tr><tr><td style="font-weight:bold;vertical-align:top;">is_pypy</td><td style="vertical-align:top;">:</td><td><div>False</div></td></tr><tr><td style="font-weight:bold;vertical-align:top;">is_source</td><td style="vertical-align:top;">:</td><td><div>True</div></td></tr><tr><td style="font-weight:bold;vertical-align:top;">local_hosts</td><td style="vertical-align:top;">:</td><td><div><table><tr><td><div>localhostess</div></td></tr><tr><td><div>::1</div></td></tr><tr><td><div>127.0.1.1</div></td></tr><tr><td><div>::ffff:127.0.0.1</div></td></tr><tr><td><div>127.0.0.1</div></td></tr></table></div></td></tr><tr><td style="font-weight:bold;vertical-align:top;">path_info</td><td style="vertical-align:top;">:</td><td><div>/ne/default/room_year</div></td></tr><tr><td style="font-weight:bold;vertical-align:top;">query_string</td><td style="vertical-align:top;">:</td><td><div></div></td></tr><tr><td style="font-weight:bold;vertical-align:top;">remote_addr</td><td style="vertical-align:top;">:</td><td><div>127.0.0.1</div></td></tr><tr><td style="font-weight:bold;vertical-align:top;">remote_port</td><td style="vertical-align:top;">:</td><td><div>47499</div></td></tr><tr><td style="font-weight:bold;vertical-align:top;">request_method</td><td style="vertical-align:top;">:</td><td><div>POST</div></td></tr><tr><td style="font-weight:bold;vertical-align:top;">request_uri</td><td style="vertical-align:top;">:</td><td><div>/ne/default/room_year</div></td></tr><tr><td style="font-weight:bold;vertical-align:top;">script_name</td><td style="vertical-align:top;">:</td><td><div></div></td></tr><tr><td style="font-weight:bold;vertical-align:top;">server_name</td><td style="vertical-align:top;">:</td><td><div>localhostess</div></td></tr><tr><td style="font-weight:bold;vertical-align:top;">server_port</td><td style="vertical-align:top;">:</td><td><div>8000</div></td></tr><tr><td style="font-weight:bold;vertical-align:top;">server_protocol</td><td style="vertical-align:top;">:</td><td><div>HTTP/1.1</div></td></tr><tr><td style="font-weight:bold;vertical-align:top;">server_software</td><td style="vertical-align:top;">:</td><td><div>Rocket 1.2.6</div></td></tr><tr><td style="font-weight:bold;vertical-align:top;">web2py_path</td><td style="vertical-align:top;">:</td><td><div>/home/aayn/Documents/web2py</div></td></tr><tr><td style="font-weight:bold;vertical-align:top;">web2py_version</td><td style="vertical-align:top;">:</td><td><div>2.9.12-stable+timestamp.2015.01.17.06.11.03</div></td></tr><tr><td style="font-weight:bold;vertical-align:top;">wsgi.errors</td><td style="vertical-align:top;">:</td><td><div>&lt;open file &#x27;&lt;stderr&gt;&#x27;, mode &#x27;w&#x27; at 0x7f09baa691e0&gt;</div></td></tr><tr><td style="font-weight:bold;vertical-align:top;">wsgi.file_wrapper</td><td style="vertical-align:top;">:</td><td><div>&lt;class wsgiref.util.FileWrapper at 0x7f09b7109120&gt;</div></td></tr><tr><td style="font-weight:bold;vertical-align:top;">wsgi.input</td><td style="vertical-align:top;">:</td><td><div>&lt;socket._fileobject object at 0x7f097c2485d0&gt;</div></td></tr><tr><td style="font-weight:bold;vertical-align:top;">wsgi.multiprocess</td><td style="vertical-align:top;">:</td><td><div>False</div></td></tr><tr><td style="font-weight:bold;vertical-align:top;">wsgi.multithread</td><td style="vertical-align:top;">:</td><td><div>True</div></td></tr><tr><td style="font-weight:bold;vertical-align:top;">wsgi.run_once</td><td style="vertical-align:top;">:</td><td><div>False</div></td></tr><tr><td style="font-weight:bold;vertical-align:top;">wsgi.url_scheme</td><td style="vertical-align:top;">:</td><td><div>http</div></td></tr><tr><td style="font-weight:bold;vertical-align:top;">wsgi.version</td><td style="vertical-align:top;">:</td><td><div><table><tr><td><div>1</div></td></tr><tr><td><div>0</div></td></tr></table></div></td></tr><tr><td style="font-weight:bold;vertical-align:top;">wsgi_errors</td><td style="vertical-align:top;">:</td><td><div>&lt;open file &#x27;&lt;stderr&gt;&#x27;, mode &#x27;w&#x27; at 0x7f09baa691e0&gt;</div></td></tr><tr><td style="font-weight:bold;vertical-align:top;">wsgi_file_wrapper</td><td style="vertical-align:top;">:</td><td><div>&lt;class wsgiref.util.FileWrapper at 0x7f09b7109120&gt;</div></td></tr><tr><td style="font-weight:bold;vertical-align:top;">wsgi_input</td><td style="vertical-align:top;">:</td><td><div>&lt;socket._fileobject object at 0x7f097c2485d0&gt;</div></td></tr><tr><td style="font-weight:bold;vertical-align:top;">wsgi_multiprocess</td><td style="vertical-align:top;">:</td><td><div>False</div></td></tr><tr><td style="font-weight:bold;vertical-align:top;">wsgi_multithread</td><td style="vertical-align:top;">:</td><td><div>True</div></td></tr><tr><td style="font-weight:bold;vertical-align:top;">wsgi_run_once</td><td style="vertical-align:top;">:</td><td><div>False</div></td></tr><tr><td style="font-weight:bold;vertical-align:top;">wsgi_url_scheme</td><td style="vertical-align:top;">:</td><td><div>http</div></td></tr><tr><td style="font-weight:bold;vertical-align:top;">wsgi_version</td><td style="vertical-align:top;">:</td><td><div><table><tr><td><div>1</div></td></tr><tr><td><div>0</div></td></tr></table></div></td></tr></table></div></td></tr><tr><td style="font-weight:bold;vertical-align:top;">extension</td><td style="vertical-align:top;">:</td><td><div>html</div></td></tr><tr><td style="font-weight:bold;vertical-align:top;">folder</td><td style="vertical-align:top;">:</td><td><div>/home/aayn/Documents/web2py/applications/ne/</div></td></tr><tr><td style="font-weight:bold;vertical-align:top;">function</td><td style="vertical-align:top;">:</td><td><div>room_year</div></td></tr><tr><td style="font-weight:bold;vertical-align:top;">global_settings</td><td style="vertical-align:top;">:</td><td><div><table><tr><td style="font-weight:bold;vertical-align:top;">app_folders</td><td style="vertical-align:top;">:</td><td><div>set([&#x27;/home/aayn/Documents/web2py/applications/welcome/&#x27;, &#x27;/home/aayn/Documents/web2py/applications/ne/&#x27;, &#x27;/home/aayn/Documents/web2py/applications/admin/&#x27;])</div></td></tr><tr><td style="font-weight:bold;vertical-align:top;">applications_parent</td><td style="vertical-align:top;">:</td><td><div>/home/aayn/Documents/web2py</div></td></tr><tr><td style="font-weight:bold;vertical-align:top;">cmd_args</td><td style="vertical-align:top;">:</td><td><div><table></table></div></td></tr><tr><td style="font-weight:bold;vertical-align:top;">cmd_options</td><td style="vertical-align:top;">:</td><td><div>&lt;Values at 0x7f09b5eeef80: {&#x27;verbose&#x27;: False, &#x27;ip&#x27;: &#x27;127.0.0.1&#x27;, &#x27;debuglevel&#x27;: 30, &#x27;with_scheduler&#x27;: False, &#x27;ips&#x27;: [&#x27;127.0.1.1&#x27;], &#x27;shutdown_timeout&#x27;: 5, &#x27;taskbar&#x27;: False, &#x27;with_coverage&#x27;: False, &#x27;scheduler_groups&#x27;: None, &#x27;port&#x27;: 8000, &#x27;maxthreads&#x27;: None, &#x27;softcron&#x27;: False, &#x27;server_name&#x27;: &#x27;localhostess&#x27;, &#x27;bpython&#x27;: False, &#x27;nogui&#x27;: False, &#x27;pid_filename&#x27;: &#x27;httpserver.pid&#x27;, &#x27;extcron&#x27;: False, &#x27;runcron&#x27;: False, &#x27;run_system_tests&#x27;: False, &#x27;test&#x27;: None, &#x27;folder&#x27;: &#x27;/home/aayn/Documents/web2py&#x27;, &#x27;config&#x27;: &#x27;&#x27;, &#x27;minthreads&#x27;: None, &#x27;shell&#x27;: None, &#x27;run&#x27;: &#x27;&#x27;, &#x27;log_filename&#x27;: &#x27;httpserver.log&#x27;, &#x27;profiler_dir&#x27;: None, &#x27;args&#x27;: [&#x27;&#x27;], &#x27;socket_timeout&#x27;: 5, &#x27;ssl_ca_certificate&#x27;: None, &#x27;scheduler&#x27;: None, &#x27;interfaces&#x27;: None, &#x27;ssl_private_key&#x27;: &#x27;&#x27;, &#x27;gae&#x27;: None, &#x27;password&#x27;: &#x27;&lt;ask&gt;&#x27;, &#x27;request_queue_size&#x27;: 5, &#x27;ssl_certificate&#x27;: &#x27;&#x27;, &#x27;cronjob&#x27;: False, &#x27;numthreads&#x27;: None, &#x27;quiet&#x27;: False, &#x27;import_models&#x27;: False, &#x27;timeout&#x27;: 10, &#x27;plain&#x27;: False, &#x27;nobanner&#x27;: False}&gt;</div></td></tr><tr><td style="font-weight:bold;vertical-align:top;">db_sessions</td><td style="vertical-align:top;">:</td><td><div>set([])</div></td></tr><tr><td style="font-weight:bold;vertical-align:top;">debugging</td><td style="vertical-align:top;">:</td><td><div>True</div></td></tr><tr><td style="font-weight:bold;vertical-align:top;">gluon_parent</td><td style="vertical-align:top;">:</td><td><div>/home/aayn/Documents/web2py</div></td></tr><tr><td style="font-weight:bold;vertical-align:top;">is_jython</td><td style="vertical-align:top;">:</td><td><div>False</div></td></tr><tr><td style="font-weight:bold;vertical-align:top;">is_pypy</td><td style="vertical-align:top;">:</td><td><div>False</div></td></tr><tr><td style="font-weight:bold;vertical-align:top;">is_source</td><td style="vertical-align:top;">:</td><td><div>True</div></td></tr><tr><td style="font-weight:bold;vertical-align:top;">local_hosts</td><td style="vertical-align:top;">:</td><td><div><table><tr><td><div>localhostess</div></td></tr><tr><td><div>::1</div></td></tr><tr><td><div>127.0.1.1</div></td></tr><tr><td><div>::ffff:127.0.0.1</div></td></tr><tr><td><div>127.0.0.1</div></td></tr></table></div></td></tr><tr><td style="font-weight:bold;vertical-align:top;">web2py_version</td><td style="vertical-align:top;">:</td><td><div>2.9.12-stable+timestamp.2015.01.17.06.11.03</div></td></tr></table></div></td></tr><tr><td style="font-weight:bold;vertical-align:top;">is_https</td><td style="vertical-align:top;">:</td><td><div>False</div></td></tr><tr><td style="font-weight:bold;vertical-align:top;">is_local</td><td style="vertical-align:top;">:</td><td><div>True</div></td></tr><tr><td style="font-weight:bold;vertical-align:top;">is_restful</td><td style="vertical-align:top;">:</td><td><div>False</div></td></tr><tr><td style="font-weight:bold;vertical-align:top;">is_sheduler</td><td style="vertical-align:top;">:</td><td><div>None</div></td></tr><tr><td style="font-weight:bold;vertical-align:top;">is_shell</td><td style="vertical-align:top;">:</td><td><div>None</div></td></tr><tr><td style="font-weight:bold;vertical-align:top;">now</td><td style="vertical-align:top;">:</td><td><div>datetime.datetime(2015, 5, 2, 19, 13, 8, 804488)</div></td></tr><tr><td style="font-weight:bold;vertical-align:top;">raw_args</td><td style="vertical-align:top;">:</td><td><div></div></td></tr><tr><td style="font-weight:bold;vertical-align:top;">raw_extension</td><td style="vertical-align:top;">:</td><td><div>None</div></td></tr><tr><td style="font-weight:bold;vertical-align:top;">url</td><td style="vertical-align:top;">:</td><td><div>/ne/default/room_year</div></td></tr><tr><td style="font-weight:bold;vertical-align:top;">utcnow</td><td style="vertical-align:top;">:</td><td><div>datetime.datetime(2015, 5, 2, 13, 43, 8, 804514)</div></td></tr><tr><td style="font-weight:bold;vertical-align:top;">uuid</td><td style="vertical-align:top;">:</td><td><div>ne/127.0.0.1.2015-05-02.19-13-08.ed7d30ac-c5c8-4d77-ad3d-4b5ce45706de</div></td></tr><tr><td style="font-weight:bold;vertical-align:top;">wsgi</td><td style="vertical-align:top;">:</td><td><div>&lt;gluon.main.LazyWSGI object at 0x7f097c40c1d0&gt;</div></td></tr></table></div>'
tRp62
sS'frames'
p63
(lp64
(dp65
S'file'
p66
S'/home/aayn/Documents/web2py/gluon/restricted.py'
p67
sS'dump'
p68
(dp69
S'environment'
p70
S"{'A': <class 'gluon.html.A'>, 'ANY_OF': <class 'gluon.validators.ANY_OF'>, 'ASSIGNJS': <function ASSIGNJS>, 'Auth': <class 'gluon.tools.Auth'>, 'B': <class 'gluon.html.B'>, 'BEAUTIFY': <class 'gluon.html.BEAUTIFY'>, 'BODY': <class 'gluon.html.BODY'>, 'BR': <class 'gluon.html.BR'>, 'BUTTON': <class 'gluon.html.BUTTON'>, 'CAT': <class 'gluon.html.CAT'>, ...}"
p71
sS'ccode'
p72
S'<code object <module> at 0x7f097da6ad30, file "/...applications/ne/controllers/default.py", line 12>'
p73
ssS'lnum'
p74
I224
sS'lines'
p75
(dp76
I224
S'        exec ccode in environment'
p77
sI225
S'    except HTTP:'
p78
sI226
S'        raise'
p79
sI227
S'    except RestrictedError:'
p80
sI228
S'        # do not encapsulate (obfuscate) the original RestrictedError'
p81
sI219
S'    try:'
p82
sI220
S'        if isinstance(code, types.CodeType):'
p83
sI221
S'            ccode = code'
p84
sI222
S'        else:'
p85
sI223
S'            ccode = compile2(code, layer)'
p86
ssS'call'
p87
S"(code='# -*- coding: utf-8 -*-\\n# this file is released ...ls()\\n\\nresponse._vars=response._caller(room_year)\\n', environment={'A': <class 'gluon.html.A'>, 'ANY_OF': <class 'gluon.validators.ANY_OF'>, 'ASSIGNJS': <function ASSIGNJS>, 'Auth': <class 'gluon.tools.Auth'>, 'B': <class 'gluon.html.B'>, 'BEAUTIFY': <class 'gluon.html.BEAUTIFY'>, 'BODY': <class 'gluon.html.BODY'>, 'BR': <class 'gluon.html.BR'>, 'BUTTON': <class 'gluon.html.BUTTON'>, 'CAT': <class 'gluon.html.CAT'>, ...}, layer='/home/aayn/Documents/web2py/applications/ne/controllers/default.py')"
p88
sS'func'
p89
S'restricted'
p90
sa(dp91
g66
S'/home/aayn/Documents/web2py/applications/ne/controllers/default.py'
p92
sg68
(dp93
sg74
I293
sg75
(dp94
I288
S'@auth.requires_login()'
p95
sI289
S'def people():'
p96
sI290
S'    message = "This room is occupied."'
p97
sI291
S'    return locals()'
p98
sI282
S'@auth.requires_login()'
p99
sI283
S'def two_people():'
p100
sI284
S'    message = "Sorry! Two people already registered for this room."'
p101
sI285
S'    return locals()'
p102
sI286
S''
sI287
S''
ssg87
S'()'
p103
sg89
S'<module>'
p104
sa(dp105
g66
S'/home/aayn/Documents/web2py/gluon/globals.py'
p106
sg68
(dp107
S'self'
p108
S'undefined'
p109
sS'f'
S'<function room_year>'
p110
ssg74
I393
sg75
(dp111
I388
S"        self.flash = ''            # used by the default view layout"
p112
sI389
S'        self.meta = Storage()      # used by web2py_ajax.html'
p113
sI390
S'        self.menu = []             # used by the default view layout'
p114
sI391
S'        self.files = []            # used by web2py_ajax.html'
p115
sI392
S'        self._vars = None'
p116
sI393
S'        self._caller = lambda f: f()'
p117
sI394
S'        self._view_environment = None'
p118
sI395
S'        self._custom_commit = None'
p119
sI396
S'        self._custom_rollback = None'
p120
sI397
S"        self.generic_patterns = ['*']"
p121
ssg87
S'(f=<function room_year>)'
p122
sg89
S'<lambda>'
p123
sa(dp124
g66
S'/home/aayn/Documents/web2py/gluon/tools.py'
p125
sg68
(dp126
S'action'
p127
S'<function room_year>'
p128
sS'a'
S'()'
p129
sS'b'
g21
ssg74
I3444
sg75
(dp130
I3439
S'                    flag = condition'
p131
sI3440
S'                if not flag:'
p132
sI3441
S'                    current.session.flash = self.messages.access_denied'
p133
sI3442
S'                    return call_or_redirect('
p134
sI3443
S'                        self.settings.on_failed_authorization)'
p135
sI3444
S'                return action(*a, **b)'
p136
sI3445
S'            f.__doc__ = action.__doc__'
p137
sI3446
S'            f.__name__ = action.__name__'
p138
sI3447
S'            f.__dict__.update(action.__dict__)'
p139
sI3448
S'            return f'
p140
ssg87
S'(*a=(), **b={})'
p141
sg89
S'f'
sa(dp142
g66
S'/home/aayn/Documents/web2py/applications/ne/controllers/default.py'
p143
sg68
(dp144
S'global db'
p145
S'<DAL uri="sqlite://storage.sqlite">'
p146
sS'global SQLFORM'
p147
S"<class 'gluon.sqlhtml.SQLFORM'>"
p148
sS').process'
p149
g109
sS'form'
p150
g109
sS'db.room_year'
p151
S'<Table room_year (id,batch,student)>'
p152
ssg74
I114
sg75
(dp153
I109
S'        db(db.room_year.student == auth.user.id).delete()'
p154
sI110
S'    elif i > 0:'
p155
sI111
S'        session.flash = "You have already registered."'
p156
sI112
S"        redirect(URL('default', 'already_got_room'))"
p157
sI113
S'    db.room_year.student.default=auth.user.id'
p158
sI114
S'    form=SQLFORM(db.room_year).process()'
p159
sI115
S"    if form.vars.batch  ==  'UG2K15':"
p160
sI116
S"        if auth.user.sex == 'Female':"
p161
sI117
S'            redirect(URL(\'default\', \'FUG2K15\', args=["Parul", "Nivas", 1]))'
p162
sI118
S'        else:'
p163
ssg87
S'()'
p164
sg89
S'room_year'
p165
sa(dp166
g66
S'/home/aayn/Documents/web2py/gluon/html.py'
p167
sg68
(dp168
S'self'
p169
S'<gluon.sqlhtml.SQLFORM object>'
p170
sS'self.validate'
p171
S'<bound method SQLFORM.validate of <gluon.sqlhtml.SQLFORM object>>'
p172
sS'kwargs'
p173
S"{'dbio': True}"
p174
ssg74
I2303
sg75
(dp175
I2304
S'        return self'
p176
sI2305
S''
sI2306
S'    REDIRECT_JS = "window.location=\'%s\';return false"'
p177
sI2307
S''
sI2298
S''
sI2299
S''
sI2300
S'        """'
p178
sI2301
S"        kwargs['dbio'] = kwargs.get('dbio', True)"
p179
sI2302
S'                                    # necessary for SQLHTML forms'
p180
sI2303
S'        self.validate(**kwargs)'
p181
ssg87
S"(self=<gluon.sqlhtml.SQLFORM object>, **kwargs={'dbio': True})"
p182
sg89
S'process'
p183
sa(dp184
g66
S'/home/aayn/Documents/web2py/gluon/html.py'
p185
sg68
(dp186
S'self'
p187
S'<gluon.sqlhtml.SQLFORM object>'
p188
sS'self.accepts'
p189
S'<bound method SQLFORM.accepts of <gluon.sqlhtml.SQLFORM object>>'
p190
sS'kwargs'
p191
S"{'dbio': True, 'request_vars': <Storage {'_formkey': 'b646a14c-70d8-4b5b-9239-7...tch': 'UG2K15', '_formname': 'room_year/create'}>, 'session': <Storage {'last_query': 'db.auth_user.id>0', '_f...f9e11', '2c335196-c141-428a-8fa6-1d39c577bdb2']}>}"
p192
ssg74
I2240
sg75
(dp193
I2240
S'        if self.accepts(**kwargs):'
p194
sI2241
S"            if onsuccess == 'flash':"
p195
sI2242
S'                if next:'
p196
sI2243
S'                    current.session.flash = message_onsuccess'
p197
sI2244
S'                else:'
p198
sI2235
S"        for key in ('message_onsuccess', 'message_onfailure', 'onsuccess',"
p199
sI2236
S"                    'onfailure', 'next', 'message_onchange', 'onchange'):"
p200
sI2237
S'            if key in kwargs:'
p201
sI2238
S'                del kwargs[key]'
p202
sI2239
S''
ssg87
S"(self=<gluon.sqlhtml.SQLFORM object>, **kwargs={'dbio': True, 'request_vars': <Storage {'_formkey': 'b646a14c-70d8-4b5b-9239-7...tch': 'UG2K15', '_formname': 'room_year/create'}>, 'session': <Storage {'last_query': 'db.auth_user.id>0', '_f...f9e11', '2c335196-c141-428a-8fa6-1d39c577bdb2']}>})"
p203
sg89
S'validate'
p204
sa(dp205
g66
S'/home/aayn/Documents/web2py/gluon/sqlhtml.py'
p206
sg68
(dp207
S'self.vars.id'
p208
S'None'
p209
sS'fields'
p210
S"{'batch': 'UG2K15', 'student': 10L}"
p211
sS'self'
p212
S'<gluon.sqlhtml.SQLFORM object>'
p213
sS'self.vars'
p214
S"<Storage {'batch': 'UG2K15'}>"
p215
sS'self.table.insert'
p216
S'<bound method Table.insert of <Table room_year (id,batch,student)>>'
p217
sS'self.table'
p218
S'<Table room_year (id,batch,student)>'
p219
ssg74
I1677
sg75
(dp220
I1672
S'                    self.vars.id = self.record[self.id_field_name]'
p221
sI1673
S'                    if fields:'
p222
sI1674
S'                        self.table._db(self.table._id == self.record['
p223
sI1675
S'                                       self.id_field_name]).update(**fields)'
p224
sI1676
S'                else:'
p225
sI1677
S'                    self.vars.id = self.table.insert(**fields)'
p226
sI1678
S'        self.accepted = ret'
p227
sI1679
S'        return ret'
p228
sI1680
S''
sI1681
S'    AUTOTYPES = {'
p229
ssg87
S"(self=<gluon.sqlhtml.SQLFORM object>, request_vars=<Storage {'_formkey': 'b646a14c-70d8-4b5b-9239-7...tch': 'UG2K15', '_formname': 'room_year/create'}>, session=<Storage {'last_query': 'db.auth_user.id>0', '_f...f9e11', '2c335196-c141-428a-8fa6-1d39c577bdb2']}>, formname='room_year/create', keepvalues=False, onvalidation=None, dbio=True, hideerror=False, detect_record_change=False, **kwargs={})"
p230
sg89
S'accepts'
p231
sa(dp232
g66
S'/home/aayn/Documents/web2py/gluon/dal/objects.py'
p233
sg68
(dp234
S'self._listify'
p235
S'<bound method Table._listify of <Table room_year (id,batch,student)>>'
p236
sS'fields'
p237
S"{'batch': 'UG2K15', 'student': 10L}"
p238
sS'self'
p239
S'<Table room_year (id,batch,student)>'
p240
sS'ret'
p241
g109
sS'self._db._adapter'
p242
S'<gluon.dal.adapters.sqlite.SQLiteAdapter object>'
p243
sS'self._db._adapter.insert'
p244
S'<bound method SQLiteAdapter.insert of <gluon.dal.adapters.sqlite.SQLiteAdapter object>>'
p245
sS'self._db'
p246
S'<DAL uri="sqlite://storage.sqlite">'
p247
ssg74
I724
sg75
(dp248
I719
S''
sI720
S'    def insert(self, **fields):'
p249
sI721
S'        fields = self._defaults(fields)'
p250
sI722
S'        self._attempt_upload(fields)'
p251
sI723
S'        if any(f(fields) for f in self._before_insert): return 0'
p252
sI724
S'        ret =  self._db._adapter.insert(self, self._listify(fields))'
p253
sI725
S'        if ret and self._after_insert:'
p254
sI726
S'            fields = Row(fields)'
p255
sI727
S'            [f(fields,ret) for f in self._after_insert]'
p256
sI728
S'        return ret'
p257
ssg87
S"(self=<Table room_year (id,batch,student)>, **fields={'batch': 'UG2K15', 'student': 10L})"
p258
sg89
S'insert'
p259
sa(dp260
g66
S'/home/aayn/Documents/web2py/gluon/dal/adapters/base.py'
p261
sg68
(dp262
S'e'
S"IntegrityError('FOREIGN KEY constraint failed',)"
p263
ssg74
I715
sg75
(dp264
I710
S'            self.execute(query)'
p265
sI711
S'        except Exception:'
p266
sI712
S'            e = sys.exc_info()[1]'
p267
sI713
S"            if hasattr(table,'_on_insert_error'):"
p268
sI714
S'                return table._on_insert_error(table,fields,e)'
p269
sI715
S'            raise e'
p270
sI716
S"        if hasattr(table, '_primarykey'):"
p271
sI717
S'            mydict = dict([(k[0].name, k[1]) for k in fields if k[0].name in table._primarykey])'
p272
sI718
S'            if mydict != {}:'
p273
sI719
S'                return mydict'
p274
ssg87
S"(self=<gluon.dal.adapters.sqlite.SQLiteAdapter object>, table=<Table room_year (id,batch,student)>, fields=[(<gluon.dal.objects.Field object>, 'UG2K15'), (<gluon.dal.objects.Field object>, 10L)])"
p275
sg89
g259
sasS'pyver'
p276
S'Python 2.7.6: /usr/bin/python (prefix: /usr)'
p277
sS'session'
p278
g61
(S's5\r\x00\x00<div><table><tr><td style="font-weight:bold;vertical-align:top;">auth</td><td style="vertical-align:top;">:</td><td><div><table><tr><td style="font-weight:bold;vertical-align:top;">expiration</td><td style="vertical-align:top;">:</td><td><div>3600</div></td></tr><tr><td style="font-weight:bold;vertical-align:top;">hmac_key</td><td style="vertical-align:top;">:</td><td><div>f1a57d65-fb72-4461-b8fb-fbe02bff62d3</div></td></tr><tr><td style="font-weight:bold;vertical-align:top;">last_visit</td><td style="vertical-align:top;">:</td><td><div>datetime.datetime(2015, 5, 2, 19, 9, 34, 793001)</div></td></tr><tr><td style="font-weight:bold;vertical-align:top;">user</td><td style="vertical-align:top;">:</td><td><div><table><tr><td style="font-weight:bold;vertical-align:top;">dob</td><td style="vertical-align:top;">:</td><td><div>datetime.date(2015, 5, 10)</div></td></tr><tr><td style="font-weight:bold;vertical-align:top;">email</td><td style="vertical-align:top;">:</td><td><div>girl@boy.com</div></td></tr><tr><td style="font-weight:bold;vertical-align:top;">first_name</td><td style="vertical-align:top;">:</td><td><div>Girl</div></td></tr><tr><td style="font-weight:bold;vertical-align:top;">home_address</td><td style="vertical-align:top;">:</td><td><div></div></td></tr><tr><td style="font-weight:bold;vertical-align:top;">id</td><td style="vertical-align:top;">:</td><td><div>10L</div></td></tr><tr><td style="font-weight:bold;vertical-align:top;">last_name</td><td style="vertical-align:top;">:</td><td><div>Boy</div></td></tr><tr><td style="font-weight:bold;vertical-align:top;">name_of_father</td><td style="vertical-align:top;">:</td><td><div></div></td></tr><tr><td style="font-weight:bold;vertical-align:top;">phone_number</td><td style="vertical-align:top;">:</td><td><div>7799123490</div></td></tr><tr><td style="font-weight:bold;vertical-align:top;">photo</td><td style="vertical-align:top;">:</td><td><div></div></td></tr><tr><td style="font-weight:bold;vertical-align:top;">registration_id</td><td style="vertical-align:top;">:</td><td><div></div></td></tr><tr><td style="font-weight:bold;vertical-align:top;">registration_key</td><td style="vertical-align:top;">:</td><td><div></div></td></tr><tr><td style="font-weight:bold;vertical-align:top;">reset_password_key</td><td style="vertical-align:top;">:</td><td><div></div></td></tr><tr><td style="font-weight:bold;vertical-align:top;">roll_number</td><td style="vertical-align:top;">:</td><td><div>20156789</div></td></tr><tr><td style="font-weight:bold;vertical-align:top;">sex</td><td style="vertical-align:top;">:</td><td><div>Female</div></td></tr></table></div></td></tr><tr><td style="font-weight:bold;vertical-align:top;">user_groups</td><td style="vertical-align:top;">:</td><td><div><table><tr><td style="font-weight:bold;vertical-align:top;">11</td><td style="vertical-align:top;">:</td><td><div>user_10</div></td></tr></table></div></td></tr></table></div></td></tr><tr><td style="font-weight:bold;vertical-align:top;">flash</td><td style="vertical-align:top;">:</td><td><div>None</div></td></tr><tr><td style="font-weight:bold;vertical-align:top;">last_orderby</td><td style="vertical-align:top;">:</td><td><div>None</div></td></tr><tr><td style="font-weight:bold;vertical-align:top;">last_query</td><td style="vertical-align:top;">:</td><td><div>db.auth_user.id&gt;0</div></td></tr></table></div>'
tRp279
sS'etype'
p280
S"<class 'sqlite3.IntegrityError'>"
p281
sS'date'
p282
S'Sat May  2 19:13:08 2015'
p283
sS'response'
p284
g61
(S's\xa1\x1f\x00\x00<div><table><tr><td style="font-weight:bold;vertical-align:top;">body</td><td style="vertical-align:top;">:</td><td><div>&lt;cStringIO.StringO object at 0x7f097d1a7308&gt;</div></td></tr><tr><td style="font-weight:bold;vertical-align:top;">cookies</td><td style="vertical-align:top;">:</td><td><div><table><tr><td style="font-weight:bold;vertical-align:top;">session_id_ne</td><td style="vertical-align:top;">:</td><td><div>127.0.0.1-f833bce3-c3d7-4fd0-a296-a93eb4aa6b7b<table><tr><td style="font-weight:bold;vertical-align:top;">comment</td><td style="vertical-align:top;">:</td><td><div></div></td></tr><tr><td style="font-weight:bold;vertical-align:top;">domain</td><td style="vertical-align:top;">:</td><td><div></div></td></tr><tr><td style="font-weight:bold;vertical-align:top;">expires</td><td style="vertical-align:top;">:</td><td><div></div></td></tr><tr><td style="font-weight:bold;vertical-align:top;">httponly</td><td style="vertical-align:top;">:</td><td><div></div></td></tr><tr><td style="font-weight:bold;vertical-align:top;">max-age</td><td style="vertical-align:top;">:</td><td><div></div></td></tr><tr><td style="font-weight:bold;vertical-align:top;">path</td><td style="vertical-align:top;">:</td><td><div>/</div></td></tr><tr><td style="font-weight:bold;vertical-align:top;">secure</td><td style="vertical-align:top;">:</td><td><div></div></td></tr><tr><td style="font-weight:bold;vertical-align:top;">version</td><td style="vertical-align:top;">:</td><td><div></div></td></tr></table></div></td></tr></table></div></td></tr><tr><td style="font-weight:bold;vertical-align:top;">delimiters</td><td style="vertical-align:top;">:</td><td><div><table><tr><td><div>{{</div></td></tr><tr><td><div>}}</div></td></tr></table></div></td></tr><tr><td style="font-weight:bold;vertical-align:top;">files</td><td style="vertical-align:top;">:</td><td><div><table></table></div></td></tr><tr><td style="font-weight:bold;vertical-align:top;">flash</td><td style="vertical-align:top;">:</td><td><div></div></td></tr><tr><td style="font-weight:bold;vertical-align:top;">form_label_separator</td><td style="vertical-align:top;">:</td><td><div>: </div></td></tr><tr><td style="font-weight:bold;vertical-align:top;">formstyle</td><td style="vertical-align:top;">:</td><td><div>table3cols</div></td></tr><tr><td style="font-weight:bold;vertical-align:top;">generic_patterns</td><td style="vertical-align:top;">:</td><td><div><table><tr><td><div>*</div></td></tr></table></div></td></tr><tr><td style="font-weight:bold;vertical-align:top;">google_analytics_id</td><td style="vertical-align:top;">:</td><td><div>None</div></td></tr><tr><td style="font-weight:bold;vertical-align:top;">headers</td><td style="vertical-align:top;">:</td><td><div><table><tr><td style="font-weight:bold;vertical-align:top;">X-Powered-By</td><td style="vertical-align:top;">:</td><td><div>web2py</div></td></tr></table></div></td></tr><tr><td style="font-weight:bold;vertical-align:top;">logo</td><td style="vertical-align:top;">:</td><td><div><a class="navbar-brand" href="http://www.google.com"><b>IT<span>2</span>py</b>&trade;&nbsp;</a></div></td></tr><tr><td style="font-weight:bold;vertical-align:top;">menu</td><td style="vertical-align:top;">:</td><td><div><table><tr><td><div><table><tr><td><div>Home</div></td></tr><tr><td><div>False</div></td></tr><tr><td><div>/ne/default/index</div></td></tr><tr><td><div><table></table></div></td></tr></table></div></td></tr><tr><td><div><table><tr><td><div><span class="highlighted">Newspaper</span></div></td></tr><tr><td><div>False</div></td></tr><tr><td><div>/ne/default/newspaper</div></td></tr><tr><td><div><table><tr><td><div><table><tr><td><div>New Newspaper Subscription</div></td></tr><tr><td><div>False</div></td></tr><tr><td><div>/ne/default/newspaper</div></td></tr><tr><td><div>[]</div></td></tr></table></div></td></tr><tr><td><div><table><tr><td><div>View Existing Subscriptions</div></td></tr><tr><td><div>False</div></td></tr><tr><td><div>/ne/default/show_newspaper_subscriptions</div></td></tr><tr><td><div>[]</div></td></tr></table></div></td></tr></table></div></td></tr></table></div></td></tr></table></div></td></tr><tr><td style="font-weight:bold;vertical-align:top;">meta</td><td style="vertical-align:top;">:</td><td><div><table><tr><td style="font-weight:bold;vertical-align:top;">author</td><td style="vertical-align:top;">:</td><td><div>Your Name &lt;you@example.com&gt;</div></td></tr><tr><td style="font-weight:bold;vertical-align:top;">generator</td><td style="vertical-align:top;">:</td><td><div>Web2py Web Framework</div></td></tr><tr><td style="font-weight:bold;vertical-align:top;">keywords</td><td style="vertical-align:top;">:</td><td><div>web2py, python, framework</div></td></tr></table></div></td></tr><tr><td style="font-weight:bold;vertical-align:top;">models_to_run</td><td style="vertical-align:top;">:</td><td><div><table><tr><td><div>^\\w+\\.py$</div></td></tr><tr><td><div>^default/\\w+\\.py$</div></td></tr><tr><td><div>^default/room_year/\\w+\\.py$</div></td></tr></table></div></td></tr><tr><td style="font-weight:bold;vertical-align:top;">postprocessing</td><td style="vertical-align:top;">:</td><td><div><table></table></div></td></tr><tr><td style="font-weight:bold;vertical-align:top;">session_client</td><td style="vertical-align:top;">:</td><td><div>127.0.0.1</div></td></tr><tr><td style="font-weight:bold;vertical-align:top;">session_cookie_compression_level</td><td style="vertical-align:top;">:</td><td><div>None</div></td></tr><tr><td style="font-weight:bold;vertical-align:top;">session_cookie_expires</td><td style="vertical-align:top;">:</td><td><div>None</div></td></tr><tr><td style="font-weight:bold;vertical-align:top;">session_cookie_key</td><td style="vertical-align:top;">:</td><td><div>None</div></td></tr><tr><td style="font-weight:bold;vertical-align:top;">session_data_name</td><td style="vertical-align:top;">:</td><td><div>session_data_ne</div></td></tr><tr><td style="font-weight:bold;vertical-align:top;">session_file</td><td style="vertical-align:top;">:</td><td><div>&lt;open file &#x27;/home/aayn/Documents/web2py/applications/ne/sessions/0ba/1bf/127.0.0.1-f833bce3-c3d7-4fd0-a296-a93eb4aa6b7b&#x27;, mode &#x27;rb+&#x27; at 0x7f097dabaa50&gt;</div></td></tr><tr><td style="font-weight:bold;vertical-align:top;">session_filename</td><td style="vertical-align:top;">:</td><td><div>/home/aayn/Documents/web2py/applications/ne/sessions/127.0.0.1-f833bce3-c3d7-4fd0-a296-a93eb4aa6b7b</div></td></tr><tr><td style="font-weight:bold;vertical-align:top;">session_hash</td><td style="vertical-align:top;">:</td><td><div>73f9ea3427720d2adf3e7e268eb21e52</div></td></tr><tr><td style="font-weight:bold;vertical-align:top;">session_id</td><td style="vertical-align:top;">:</td><td><div>127.0.0.1-f833bce3-c3d7-4fd0-a296-a93eb4aa6b7b</div></td></tr><tr><td style="font-weight:bold;vertical-align:top;">session_id_name</td><td style="vertical-align:top;">:</td><td><div>session_id_ne</div></td></tr><tr><td style="font-weight:bold;vertical-align:top;">session_locked</td><td style="vertical-align:top;">:</td><td><div>True</div></td></tr><tr><td style="font-weight:bold;vertical-align:top;">session_masterapp</td><td style="vertical-align:top;">:</td><td><div>ne</div></td></tr><tr><td style="font-weight:bold;vertical-align:top;">session_new</td><td style="vertical-align:top;">:</td><td><div>False</div></td></tr><tr><td style="font-weight:bold;vertical-align:top;">session_storage_type</td><td style="vertical-align:top;">:</td><td><div>file</div></td></tr><tr><td style="font-weight:bold;vertical-align:top;">status</td><td style="vertical-align:top;">:</td><td><div>200</div></td></tr><tr><td style="font-weight:bold;vertical-align:top;">subtitle</td><td style="vertical-align:top;">:</td><td><div></div></td></tr><tr><td style="font-weight:bold;vertical-align:top;">title</td><td style="vertical-align:top;">:</td><td><div>Ne</div></td></tr><tr><td style="font-weight:bold;vertical-align:top;">view</td><td style="vertical-align:top;">:</td><td><div>default/room_year.html</div></td></tr></table></div>'
tRp285
sS'locals'
p286
(dp287
S'fields'
p288
S"[(<gluon.dal.objects.Field object>, 'UG2K15'), (<gluon.dal.objects.Field object>, 10L)]"
p289
sS'self'
p290
S'<gluon.dal.adapters.sqlite.SQLiteAdapter object>'
p291
sS'e'
S"IntegrityError('FOREIGN KEY constraint failed',)"
p292
sS'table'
p293
S'<Table room_year (id,batch,student)>'
p294
sS'query'
p295
S'"INSERT INTO room_year(batch,student) VALUES (\'UG2K15\',10);"'
p296
sssS'traceback'
p297
S'Traceback (most recent call last):\n  File "/home/aayn/Documents/web2py/gluon/restricted.py", line 224, in restricted\n    exec ccode in environment\n  File "/home/aayn/Documents/web2py/applications/ne/controllers/default.py", line 293, in <module>\n  File "/home/aayn/Documents/web2py/gluon/globals.py", line 393, in <lambda>\n    self._caller = lambda f: f()\n  File "/home/aayn/Documents/web2py/gluon/tools.py", line 3444, in f\n    return action(*a, **b)\n  File "/home/aayn/Documents/web2py/applications/ne/controllers/default.py", line 114, in room_year\n    form=SQLFORM(db.room_year).process()\n  File "/home/aayn/Documents/web2py/gluon/html.py", line 2303, in process\n    self.validate(**kwargs)\n  File "/home/aayn/Documents/web2py/gluon/html.py", line 2240, in validate\n    if self.accepts(**kwargs):\n  File "/home/aayn/Documents/web2py/gluon/sqlhtml.py", line 1677, in accepts\n    self.vars.id = self.table.insert(**fields)\n  File "/home/aayn/Documents/web2py/gluon/dal/objects.py", line 724, in insert\n    ret =  self._db._adapter.insert(self, self._listify(fields))\n  File "/home/aayn/Documents/web2py/gluon/dal/adapters/base.py", line 715, in insert\n    raise e\nIntegrityError: FOREIGN KEY constraint failed\n'
p298
s.